(dp1
S'216'
p2
(dp3
S'project_id'
p4
S'0'
sS'duplicate'
p5
S'f'
sS'photometry_type'
p6
S'AP'
p7
sS'comments'
p8
S''
sS'path'
p9
S'/nfs/phn10/edrive1/4KAP_LC/216'
p10
ssS'214'
p11
(dp12
S'project_id'
p13
S'0'
sS'duplicate'
p14
S'f'
sS'photometry_type'
p15
S'AP'
p16
sS'comments'
p17
S''
sS'path'
p18
S'/nfs/phn15/ar0/H/4KRED/AP/4KAP_LC/214'
p19
ssS'215'
p20
(dp21
S'project_id'
p22
S'0'
sS'duplicate'
p23
S'f'
sS'photometry_type'
p24
S'AP'
p25
sS'comments'
p26
S''
sS'path'
p27
S'/nfs/phn10/edrive1/4KAP_LC/215'
p28
ssS'212'
p29
(dp30
S'project_id'
p31
S'0'
sS'duplicate'
p32
S'f'
sS'photometry_type'
p33
S'ISM'
p34
sS'comments'
p35
S''
sS'path'
p36
S'/nfs/phn9/ar1/4KRED/ISM/4KISM_LC/212'
p37
ssS'213'
p38
(dp39
S'project_id'
p40
S'0'
sS'duplicate'
p41
S'f'
sS'photometry_type'
p42
S'AP'
p43
sS'comments'
p44
S''
sS'path'
p45
S'/nfs/phn11/edrive5.1/LC/213'
p46
ssS'210'
p47
(dp48
S'project_id'
p49
S'0'
sS'duplicate'
p50
S'f'
sS'photometry_type'
p51
S'AP'
p52
sS'comments'
p53
S''
sS'path'
p54
S'/nfs/phn11/ar0/4KRED/AP/4KAP_LC/210'
p55
ssS'211'
p56
(dp57
S'project_id'
p58
S'0'
sS'duplicate'
p59
S'f'
sS'photometry_type'
p60
S'AP'
p61
sS'comments'
p62
S''
sS'path'
p63
S'/nfs/phn11/edrive3/LC/211'
p64
ssS'093'
p65
(dp66
S'project_id'
p67
S'0'
sS'duplicate'
p68
S'f'
sS'photometry_type'
p69
S'AP'
p70
sS'comments'
p71
S''
sS'path'
p72
S'/nfs/phn7/ar1/H/4KRED/4KAP_LC/093'
p73
ssS'094'
p74
(dp75
S'project_id'
p76
S'0'
sS'duplicate'
p77
S'f'
sS'photometry_type'
p78
S'ISM'
p79
sS'comments'
p80
S''
sS'path'
p81
S'/nfs/phn1/ar0/phn5_save/ar0/H/apal/red4k/fields/094/ism/epdlc/'
p82
ssS'095'
p83
(dp84
S'project_id'
p85
S'0'
sS'duplicate'
p86
S'f'
sS'photometry_type'
p87
S'AP'
p88
sS'comments'
p89
S''
sS'path'
p90
S'/nfs/phn10/edrive1/4KAP_LC/095'
p91
ssS'096'
p92
(dp93
S'project_id'
p94
S'0'
sS'duplicate'
p95
S'f'
sS'photometry_type'
p96
S'AP'
p97
sS'comments'
p98
S''
sS'path'
p99
S'/nfs/phn9/ar0/4KAP_LC/096'
p100
ssS'219'
p101
(dp102
S'project_id'
p103
S'0'
sS'duplicate'
p104
S'f'
sS'photometry_type'
p105
S'AP'
p106
sS'comments'
p107
S''
sS'path'
p108
S'/nfs/phn15/ar1/H/4KRED/4KAP_LC/219'
p109
ssS'133'
p110
(dp111
S'project_id'
p112
S'0'
sS'duplicate'
p113
S'f'
sS'photometry_type'
p114
S'AP'
p115
sS'comments'
p116
S''
sS'path'
p117
S'/nfs/phn11/edrive3/LC/133'
p118
ssS'132'
p119
(dp120
S'project_id'
p121
S'0'
sS'duplicate'
p122
S'f'
sS'photometry_type'
p123
S'AP'
p124
sS'comments'
p125
S''
sS'path'
p126
S'/nfs/phn11/edrive5.1/LC/132'
p127
ssS'136'
p128
(dp129
S'project_id'
p130
S'0'
sS'duplicate'
p131
S'f'
sS'photometry_type'
p132
S'AP'
p133
sS'comments'
p134
S''
sS'path'
p135
S'/nfs/phn11/edrive5.1/LC/136'
p136
ssS'135'
p137
(dp138
S'project_id'
p139
S'0'
sS'duplicate'
p140
S'f'
sS'photometry_type'
p141
S'AP'
p142
sS'comments'
p143
S''
sS'path'
p144
S'/nfs/phn11/edrive3/LC/135'
p145
ssS'134'
p146
(dp147
S'project_id'
p148
S'0'
sS'duplicate'
p149
S'f'
sS'photometry_type'
p150
S'AP'
p151
sS'comments'
p152
S''
sS'path'
p153
S'/nfs/phn11/edrive5.1/LC/134'
p154
ssS'139'
p155
(dp156
S'project_id'
p157
S'0'
sS'duplicate'
p158
S'f'
sS'photometry_type'
p159
S'ISM'
p160
sS'comments'
p161
S''
sS'path'
p162
S'/nfs/phn1/ar0/phn5_save/ar0/H/apal/red4k/fields/139/ism/epdlc/'
p163
ssS'138'
p164
(dp165
S'project_id'
p166
S'0'
sS'duplicate'
p167
S'f'
sS'photometry_type'
p168
S'AP'
p169
sS'comments'
p170
S''
sS'path'
p171
S'/nfs/phn11/edrive3/LC/138'
p172
ssS'222'
p173
(dp174
S'project_id'
p175
S'0'
sS'duplicate'
p176
S'f'
sS'photometry_type'
p177
S'AP'
p178
sS'comments'
p179
S''
sS'path'
p180
S'/nfs/phn11/edrive5.1/LC/222'
p181
ssS'288'
p182
(dp183
S'project_id'
p184
S'0'
sS'duplicate'
p185
S'f'
sS'photometry_type'
p186
S'AP'
p187
sS'comments'
p188
S''
sS'path'
p189
S'/nfs/phn10/edrive1/4KAP_LC/288'
p190
ssS'221'
p191
(dp192
S'project_id'
p193
S'0'
sS'duplicate'
p194
S'f'
sS'photometry_type'
p195
S'AP'
p196
sS'comments'
p197
S''
sS'path'
p198
S'/nfs/phn11/edrive3/LC/221'
p199
ssS'342'
p200
(dp201
S'project_id'
p202
S'0'
sS'duplicate'
p203
S'f'
sS'photometry_type'
p204
S'AP'
p205
sS'comments'
p206
S'.2'
p207
sS'path'
p208
S'/nfs/phn1/ar0/phn5_save/ar0/H/4KRED/AP/4KAP_LC/342.2'
p209
ssS'220'
p210
(dp211
S'project_id'
p212
S'0'
sS'duplicate'
p213
S'f'
sS'photometry_type'
p214
S'AP'
p215
sS'comments'
p216
S''
sS'path'
p217
S'/nfs/phn11/edrive5.1/LC/220'
p218
ssS'285'
p219
(dp220
S'project_id'
p221
S'0'
sS'duplicate'
p222
S'f'
sS'photometry_type'
p223
S'AP'
p224
sS'comments'
p225
S''
sS'path'
p226
S'/nfs/phn9/ar0/4KAP_LC/285'
p227
ssS'284'
p228
(dp229
S'project_id'
p230
S'0'
sS'duplicate'
p231
S'f'
sS'photometry_type'
p232
S'AP'
p233
sS'comments'
p234
S''
sS'path'
p235
S'/nfs/phn15/ar0/H/4KRED/AP/4KAP_LC/284'
p236
ssS'287'
p237
(dp238
S'project_id'
p239
S'0'
sS'duplicate'
p240
S'f'
sS'photometry_type'
p241
S'AP'
p242
sS'comments'
p243
S''
sS'path'
p244
S'/nfs/phn15/ar1/H/4KRED/4KAP_LC/287'
p245
ssS'286'
p246
(dp247
S'project_id'
p248
S'0'
sS'duplicate'
p249
S'f'
sS'photometry_type'
p250
S'AP'
p251
sS'comments'
p252
S''
sS'path'
p253
S'/nfs/phn15/ar1/H/4KRED/4KAP_LC/286'
p254
ssS'123'
p255
(dp256
S'project_id'
p257
S'0'
sS'duplicate'
p258
S'f'
sS'photometry_type'
p259
S'AP'
p260
sS'comments'
p261
S''
sS'path'
p262
S'/nfs/phn11/edrive3/LC/123'
p263
ssS'124'
p264
(dp265
S'project_id'
p266
S'0'
sS'duplicate'
p267
S'f'
sS'photometry_type'
p268
S'AP'
p269
sS'comments'
p270
S''
sS'path'
p271
S'/nfs/phn11/edrive3/LC/124'
p272
ssS'125'
p273
(dp274
S'project_id'
p275
S'0'
sS'duplicate'
p276
S'f'
sS'photometry_type'
p277
S'AP'
p278
sS'comments'
p279
S''
sS'path'
p280
S'/nfs/phn11/edrive5.1/LC/125'
p281
ssS'126'
p282
(dp283
S'project_id'
p284
S'0'
sS'duplicate'
p285
S'f'
sS'photometry_type'
p286
S'AP'
p287
sS'comments'
p288
S''
sS'path'
p289
S'/nfs/phn11/edrive5.1/LC/126'
p290
ssS'127'
p291
(dp292
S'project_id'
p293
S'0'
sS'duplicate'
p294
S'f'
sS'photometry_type'
p295
S'AP'
p296
sS'comments'
p297
S''
sS'path'
p298
S'/nfs/phn11/edrive3/LC/127'
p299
ssS'128'
p300
(dp301
S'project_id'
p302
S'0'
sS'duplicate'
p303
S'f'
sS'photometry_type'
p304
S'AP'
p305
sS'comments'
p306
S''
sS'path'
p307
S'/nfs/phn11/edrive5.1/LC/128'
p308
ssS'269'
p309
(dp310
S'project_id'
p311
S'0'
sS'duplicate'
p312
S'f'
sS'photometry_type'
p313
S'AP'
p314
sS'comments'
p315
S''
sS'path'
p316
S'/nfs/phn15/ar0/H/4KRED/AP/4KAP_LC/269'
p317
ssS'268'
p318
(dp319
S'project_id'
p320
S'0'
sS'duplicate'
p321
S'f'
sS'photometry_type'
p322
S'AP'
p323
sS'comments'
p324
S''
sS'path'
p325
S'/nfs/phn15/ar1/H/4KRED/4KAP_LC/268'
p326
ssS'378'
p327
(dp328
S'project_id'
p329
S'0'
sS'duplicate'
p330
S'f'
sS'photometry_type'
p331
S'ISM'
p332
sS'comments'
p333
S''
sS'path'
p334
S'/nfs/phn11/ar0/4KRED/ISM/4KISM_LC/378/'
p335
ssS'416'
p336
(dp337
S'project_id'
p338
S'0'
sS'duplicate'
p339
S'f'
sS'photometry_type'
p340
S'AP'
p341
sS'comments'
p342
S''
sS'path'
p343
S'/nfs/phn11/edrive5.1/LC/416'
p344
ssS'294'
p345
(dp346
S'project_id'
p347
S'0'
sS'duplicate'
p348
S'f'
sS'photometry_type'
p349
S'ISM'
p350
sS'comments'
p351
S'GB'
p352
sS'path'
p353
S'/nfs/phn9/ar1/4KRED/ISM/4KISM_LC/294_GB'
p354
ssS'292'
p355
(dp356
S'project_id'
p357
S'0'
sS'duplicate'
p358
S'f'
sS'photometry_type'
p359
S'AP'
p360
sS'comments'
p361
S''
sS'path'
p362
S'/nfs/phn15/ar0/H/2KRED/AP/2KRED_LC/292'
p363
ssS'293'
p364
(dp365
S'project_id'
p366
S'0'
sS'duplicate'
p367
S'f'
sS'photometry_type'
p368
S'AP'
p369
sS'comments'
p370
S''
sS'path'
p371
S'/nfs/phn10/edrive1/4KAP_LC/293'
p372
ssS'377'
p373
(dp374
S'project_id'
p375
S'0'
sS'duplicate'
p376
S'f'
sS'photometry_type'
p377
S'ISM'
p378
sS'comments'
p379
S''
sS'path'
p380
S'/nfs/phn11/ar0/4KRED/ISM/4KISM_LC/377/'
p381
ssS'376'
p382
(dp383
S'project_id'
p384
S'0'
sS'duplicate'
p385
S'f'
sS'photometry_type'
p386
S'ISM'
p387
sS'comments'
p388
S''
sS'path'
p389
S'/nfs/phn9/ar1/4KRED/ISM/4KISM_LC/376'
p390
ssS'318'
p391
(dp392
S'project_id'
p393
S'0'
sS'duplicate'
p394
S'f'
sS'photometry_type'
p395
S'AP'
p396
sS'comments'
p397
S''
sS'path'
p398
S'/nfs/phn10/edrive1/4KAP_LC/318'
p399
ssS'199'
p400
(dp401
S'project_id'
p402
S'0'
sS'duplicate'
p403
S'f'
sS'photometry_type'
p404
S'AP'
p405
sS'comments'
p406
S''
sS'path'
p407
S'/nfs/phn11/edrive3/LC/199'
p408
ssS'198'
p409
(dp410
S'project_id'
p411
S'0'
sS'duplicate'
p412
S'f'
sS'photometry_type'
p413
S'AP'
p414
sS'comments'
p415
S''
sS'path'
p416
S'/nfs/phn11/edrive5.1/LC/198'
p417
ssS'195'
p418
(dp419
S'project_id'
p420
S'0'
sS'duplicate'
p421
S'f'
sS'photometry_type'
p422
S'AP'
p423
sS'comments'
p424
S''
sS'path'
p425
S'/nfs/phn11/edrive3/LC/195'
p426
ssS'194'
p427
(dp428
S'project_id'
p429
S'0'
sS'duplicate'
p430
S'f'
sS'photometry_type'
p431
S'AP'
p432
sS'comments'
p433
S''
sS'path'
p434
S'/nfs/phn11/edrive5.1/LC/194'
p435
ssS'311'
p436
(dp437
S'project_id'
p438
S'0'
sS'duplicate'
p439
S'f'
sS'photometry_type'
p440
S'AP'
p441
sS'comments'
p442
S''
sS'path'
p443
S'/nfs/phn15/ar0/H/4KRED/AP/4KAP_LC/311'
p444
ssS'196'
p445
(dp446
S'project_id'
p447
S'0'
sS'duplicate'
p448
S'f'
sS'photometry_type'
p449
S'AP'
p450
sS'comments'
p451
S''
sS'path'
p452
S'/nfs/phn11/edrive5.1/LC/196'
p453
ssS'191'
p454
(dp455
S'project_id'
p456
S'0'
sS'duplicate'
p457
S'f'
sS'photometry_type'
p458
S'AP'
p459
sS'comments'
p460
S''
sS'path'
p461
S'/nfs/phn11/edrive5.1/LC/191'
p462
ssS'089'
p463
(dp464
S'project_id'
p465
S'0'
sS'duplicate'
p466
S'f'
sS'photometry_type'
p467
S'AP'
p468
sS'comments'
p469
S''
sS'path'
p470
S'/nfs/phn15/ar0/H/4KRED/AP/4KAP_LC/089'
p471
ssS'193'
p472
(dp473
S'project_id'
p474
S'0'
sS'duplicate'
p475
S'f'
sS'photometry_type'
p476
S'AP'
p477
sS'comments'
p478
S''
sS'path'
p479
S'/nfs/phn11/edrive5.1/LC/193'
p480
ssS'192'
p481
(dp482
S'project_id'
p483
S'0'
sS'duplicate'
p484
S'f'
sS'photometry_type'
p485
S'AP'
p486
sS'comments'
p487
S''
sS'path'
p488
S'/nfs/phn11/edrive5.1/LC/192'
p489
ssS'115'
p490
(dp491
S'project_id'
p492
S'0'
sS'duplicate'
p493
S'f'
sS'photometry_type'
p494
S'AP'
p495
sS'comments'
p496
S''
sS'path'
p497
S'/nfs/phn11/edrive3/4KAP/4KAP_LC/115'
p498
ssS'114'
p499
(dp500
S'project_id'
p501
S'0'
sS'duplicate'
p502
S'f'
sS'photometry_type'
p503
S'AP'
p504
sS'comments'
p505
S''
sS'path'
p506
S'/nfs/phn10/ar0/4KRED/AP/4KAP_LC/114'
p507
ssS'145'
p508
(dp509
S'project_id'
p510
S'0'
sS'duplicate'
p511
S'f'
sS'photometry_type'
p512
S'AP'
p513
sS'comments'
p514
S''
sS'path'
p515
S'/nfs/phn11/edrive5.1/LC/145'
p516
ssS'277'
p517
(dp518
S'project_id'
p519
S'0'
sS'duplicate'
p520
S'f'
sS'photometry_type'
p521
S'AP'
p522
sS'comments'
p523
S''
sS'path'
p524
S'/nfs/phn10/edrive1/4KAP_LC/277'
p525
ssS'205'
p526
(dp527
S'project_id'
p528
S'0'
sS'duplicate'
p529
S'f'
sS'photometry_type'
p530
S'AP'
p531
sS'comments'
p532
S''
sS'path'
p533
S'/nfs/phn11/edrive3/LC/205'
p534
ssS'204'
p535
(dp536
S'project_id'
p537
S'0'
sS'duplicate'
p538
S'f'
sS'photometry_type'
p539
S'AP'
p540
sS'comments'
p541
S''
sS'path'
p542
S'/nfs/phn11/edrive5.1/LC/204'
p543
ssS'140'
p544
(dp545
S'project_id'
p546
S'5'
sS'duplicate'
p547
S'f'
sS'photometry_type'
p548
S'AP'
p549
sS'comments'
p550
S'D20'
p551
sS'path'
p552
S'/nfs/phn9/ar0/4KAP_LC/140_PR5_combined'
p553
ssS'141'
p554
(dp555
S'project_id'
p556
S'0'
sS'duplicate'
p557
S'f'
sS'photometry_type'
p558
S'ISM'
p559
sS'comments'
p560
S''
sS'path'
p561
S'/nfs/phn11/ar0/4KRED/ISM/4KISM_LC/141/'
p562
ssS'366'
p563
(dp564
S'project_id'
p565
S'0'
sS'duplicate'
p566
S'f'
sS'photometry_type'
p567
S'ISM'
p568
sS'comments'
p569
S''
sS'path'
p570
S'/nfs/phn1/ar0/phn5_save/ar1/H/4KRED/ISM/4KISM_LC/366'
p571
ssS'364'
p572
(dp573
S'project_id'
p574
S'0'
sS'duplicate'
p575
S'f'
sS'photometry_type'
p576
S'AP'
p577
sS'comments'
p578
S''
sS'path'
p579
S'/nfs/phn15/ar0/H/4KRED/AP/4KAP_LC/364'
p580
ssS'365'
p581
(dp582
S'project_id'
p583
S'0'
sS'duplicate'
p584
S'f'
sS'photometry_type'
p585
S'ISM'
p586
sS'comments'
p587
S''
sS'path'
p588
S'/nfs/phn1/ar0/phn5_save/ar1/H/4KRED/ISM/4KISM_LC/365'
p589
ssS'362'
p590
(dp591
S'project_id'
p592
S'0'
sS'duplicate'
p593
S'f'
sS'photometry_type'
p594
S'AP'
p595
sS'comments'
p596
S''
sS'path'
p597
S'/nfs/phn15/ar0/H/4KRED/AP/4KAP_LC/362'
p598
ssS'300'
p599
(dp600
S'project_id'
p601
S'0'
sS'duplicate'
p602
S'f'
sS'photometry_type'
p603
S'AP'
p604
sS'comments'
p605
S''
sS'path'
p606
S'/nfs/phn15/ar0/H/4KRED/AP/4KAP_LC/300'
p607
ssS'247'
p608
(dp609
S'project_id'
p610
S'0'
sS'duplicate'
p611
S'f'
sS'photometry_type'
p612
S'AP'
p613
sS'comments'
p614
S''
sS'path'
p615
S'/nfs/phn11/edrive3/LC/247'
p616
ssS'241'
p617
(dp618
S'project_id'
p619
S'0'
sS'duplicate'
p620
S'f'
sS'photometry_type'
p621
S'AP'
p622
sS'comments'
p623
S''
sS'path'
p624
S'/nfs/phn11/edrive3/LC/241'
p625
ssS'240'
p626
(dp627
S'project_id'
p628
S'0'
sS'duplicate'
p629
S'f'
sS'photometry_type'
p630
S'AP'
p631
sS'comments'
p632
S''
sS'path'
p633
S'/nfs/phn11/edrive5.1/LC/240'
p634
ssS'242'
p635
(dp636
S'project_id'
p637
S'0'
sS'duplicate'
p638
S'f'
sS'photometry_type'
p639
S'ISM'
p640
sS'comments'
p641
S'V1'
p642
sS'path'
p643
S'/nfs/hatsouth/edrive4.1/H/2KISM_LC/242_V1'
p644
ssS'388'
p645
(dp646
S'project_id'
p647
S'0'
sS'duplicate'
p648
S'f'
sS'photometry_type'
p649
S'ISM'
p650
sS'comments'
p651
S''
sS'path'
p652
S'/nfs/phn1/ar0/phn5_save/ar1/H/4KRED/ISM/4KISM_LC/388'
p653
ssS'389'
p654
(dp655
S'project_id'
p656
S'0'
sS'duplicate'
p657
S'f'
sS'photometry_type'
p658
S'ISM'
p659
sS'comments'
p660
S''
sS'path'
p661
S'/nfs/phn1/ar0/phn5_save/ar1/H/4KRED/ISM/4KISM_LC/389'
p662
ssS'100'
p663
(dp664
S'project_id'
p665
S'0'
sS'duplicate'
p666
S'f'
sS'photometry_type'
p667
S'AP'
p668
sS'comments'
p669
S''
sS'path'
p670
S'/nfs/phn15/ar0/H/4KRED/AP/4KAP_LC/100'
p671
ssS'101'
p672
(dp673
S'project_id'
p674
S'3'
sS'duplicate'
p675
S'f'
sS'photometry_type'
p676
S'AP'
p677
sS'comments'
p678
S'combined'
p679
sS'path'
p680
S'/nfs/phn15/ar1/H/4KRED/4KAP_LC/101_PR3_combined'
p681
ssS'249'
p682
(dp683
S'project_id'
p684
S'0'
sS'duplicate'
p685
S'f'
sS'photometry_type'
p686
S'AP'
p687
sS'comments'
p688
S''
sS'path'
p689
S'/nfs/phn10/edrive1/4KAP_LC/249'
p690
ssS'248'
p691
(dp692
S'project_id'
p693
S'0'
sS'duplicate'
p694
S'f'
sS'photometry_type'
p695
S'AP'
p696
sS'comments'
p697
S''
sS'path'
p698
S'/nfs/phn11/edrive3/LC/248'
p699
ssS'316'
p700
(dp701
S'project_id'
p702
S'0'
sS'duplicate'
p703
S'f'
sS'photometry_type'
p704
S'AP'
p705
sS'comments'
p706
S''
sS'path'
p707
S'/nfs/phn15/ar0/H/4KRED/AP/4KAP_LC/316'
p708
ssS'384'
p709
(dp710
S'project_id'
p711
S'0'
sS'duplicate'
p712
S'f'
sS'photometry_type'
p713
S'ISM'
p714
sS'comments'
p715
S''
sS'path'
p716
S'/nfs/phn1/ar0/phn5_save/ar1/H/4KRED/ISM/4KISM_LC/384'
p717
ssS'432'
p718
(dp719
S'project_id'
p720
S'0'
sS'duplicate'
p721
S'f'
sS'photometry_type'
p722
S'ISM'
p723
sS'comments'
p724
S''
sS'path'
p725
S'/nfs/phn1/ar0/phn5_save/ar1/H/4KRED/ISM/4KISM_LC/432'
p726
ssS'431'
p727
(dp728
S'project_id'
p729
S'0'
sS'duplicate'
p730
S'f'
sS'photometry_type'
p731
S'ISM'
p732
sS'comments'
p733
S''
sS'path'
p734
S'/nfs/phn11/ar0/4KRED/ISM/4KISM_LC/431/'
p735
ssS'144'
p736
(dp737
S'project_id'
p738
S'0'
sS'duplicate'
p739
S'f'
sS'photometry_type'
p740
S'AP'
p741
sS'comments'
p742
S''
sS'path'
p743
S'/nfs/phn15/ar0/H/4KRED/AP/4KAP_LC/144'
p744
ssS'258'
p745
(dp746
S'project_id'
p747
S'0'
sS'duplicate'
p748
S'f'
sS'photometry_type'
p749
S'AP'
p750
sS'comments'
p751
S''
sS'path'
p752
S'/nfs/phn11/edrive3/LC/258'
p753
ssS'259'
p754
(dp755
S'project_id'
p756
S'0'
sS'duplicate'
p757
S'f'
sS'photometry_type'
p758
S'AP'
p759
sS'comments'
p760
S''
sS'path'
p761
S'/nfs/phn15/ar0/H/4KRED/AP/4KAP_LC/259'
p762
ssS'179'
p763
(dp764
S'project_id'
p765
S'0'
sS'duplicate'
p766
S'f'
sS'photometry_type'
p767
S'ISM'
p768
sS'comments'
p769
S''
sS'path'
p770
S'/nfs/phn1/ar0/phn5_save/ar0/H/apal/red4k/fields/179/ism/epdlc/'
p771
ssS'178'
p772
(dp773
S'project_id'
p774
S'0'
sS'duplicate'
p775
S'f'
sS'photometry_type'
p776
S'AP'
p777
sS'comments'
p778
S''
sS'path'
p779
S'/nfs/phn1/ar0/phn5_save/ar0/HOLD/HAT11/2013_WHAT_REDUCTION/2KRED/2KRED_LC/178'
p780
ssS'177'
p781
(dp782
S'project_id'
p783
S'0'
sS'duplicate'
p784
S'f'
sS'photometry_type'
p785
S'AP'
p786
sS'comments'
p787
S''
sS'path'
p788
S'/nfs/phn11/edrive5.1/LC/177'
p789
ssS'176'
p790
(dp791
S'project_id'
p792
S'0'
sS'duplicate'
p793
S'f'
sS'photometry_type'
p794
S'AP'
p795
sS'comments'
p796
S''
sS'path'
p797
S'/nfs/phn11/edrive5.1/LC/176'
p798
ssS'175'
p799
(dp800
S'project_id'
p801
S'0'
sS'duplicate'
p802
S'f'
sS'photometry_type'
p803
S'AP'
p804
sS'comments'
p805
S''
sS'path'
p806
S'/nfs/phn11/edrive3/LC/175'
p807
ssS'174'
p808
(dp809
S'project_id'
p810
S'0'
sS'duplicate'
p811
S'f'
sS'photometry_type'
p812
S'AP'
p813
sS'comments'
p814
S''
sS'path'
p815
S'/nfs/phn11/edrive3/LC/174'
p816
ssS'173'
p817
(dp818
S'project_id'
p819
S'0'
sS'duplicate'
p820
S'f'
sS'photometry_type'
p821
S'AP'
p822
sS'comments'
p823
S''
sS'path'
p824
S'/nfs/phn11/edrive5.1/LC/173'
p825
ssS'257'
p826
(dp827
S'project_id'
p828
S'0'
sS'duplicate'
p829
S'f'
sS'photometry_type'
p830
S'AP'
p831
sS'comments'
p832
S''
sS'path'
p833
S'/nfs/phn15/ar1/H/4KRED/4KAP_LC/257'
p834
ssS'170'
p835
(dp836
S'project_id'
p837
S'0'
sS'duplicate'
p838
S'f'
sS'photometry_type'
p839
S'AP'
p840
sS'comments'
p841
S''
sS'path'
p842
S'/nfs/phn11/edrive5.1/LC/170'
p843
ssS'182'
p844
(dp845
S'project_id'
p846
S'0'
sS'duplicate'
p847
S'f'
sS'photometry_type'
p848
S'AP'
p849
sS'comments'
p850
S''
sS'path'
p851
S'/nfs/phn11/edrive5.1/LC/182'
p852
ssS'183'
p853
(dp854
S'project_id'
p855
S'0'
sS'duplicate'
p856
S'f'
sS'photometry_type'
p857
S'AP'
p858
sS'comments'
p859
S''
sS'path'
p860
S'/nfs/phn11/edrive5.1/LC/183'
p861
ssS'186'
p862
(dp863
S'project_id'
p864
S'0'
sS'duplicate'
p865
S'f'
sS'photometry_type'
p866
S'AP'
p867
sS'comments'
p868
S''
sS'path'
p869
S'/nfs/phn9/ar0/4KAP_LC/186'
p870
ssS'187'
p871
(dp872
S'project_id'
p873
S'0'
sS'duplicate'
p874
S'f'
sS'photometry_type'
p875
S'AP'
p876
sS'comments'
p877
S''
sS'path'
p878
S'/nfs/phn11/edrive5.1/LC/187'
p879
ssS'184'
p880
(dp881
S'project_id'
p882
S'0'
sS'duplicate'
p883
S'f'
sS'photometry_type'
p884
S'AP'
p885
sS'comments'
p886
S''
sS'path'
p887
S'/nfs/phn11/edrive5.1/LC/184'
p888
ssS'185'
p889
(dp890
S'project_id'
p891
S'0'
sS'duplicate'
p892
S'f'
sS'photometry_type'
p893
S'AP'
p894
sS'comments'
p895
S''
sS'path'
p896
S'/nfs/phn10/edrive1/4KAP_LC/185'
p897
ssS'188'
p898
(dp899
S'project_id'
p900
S'0'
sS'duplicate'
p901
S'f'
sS'photometry_type'
p902
S'AP'
p903
sS'comments'
p904
S''
sS'path'
p905
S'/nfs/phn11/edrive5.1/LC/188'
p906
ssS'189'
p907
(dp908
S'project_id'
p909
S'0'
sS'duplicate'
p910
S'f'
sS'photometry_type'
p911
S'AP'
p912
sS'comments'
p913
S''
sS'path'
p914
S'/nfs/phn1/ar0/phn5_save/ar0/HOLD/HAT11/2013_WHAT_REDUCTION/2KRED/2KRED_LC/189'
p915
ssS'341'
p916
(dp917
S'project_id'
p918
S'0'
sS'duplicate'
p919
S'f'
sS'photometry_type'
p920
S'ISM'
p921
sS'comments'
p922
S''
sS'path'
p923
S'/nfs/phn1/ar0/phn5_save/ar0/H/apal/red4k/fields/341/ism/epdlc/'
p924
ssS'063'
p925
(dp926
S'project_id'
p927
S'0'
sS'duplicate'
p928
S'f'
sS'photometry_type'
p929
S'AP'
p930
sS'comments'
p931
S''
sS'path'
p932
S'/nfs/phn7/ar1/H/4KRED/4KAP_LC/063'
p933
ssS'062'
p934
(dp935
S'project_id'
p936
S'5'
sS'duplicate'
p937
S'f'
sS'photometry_type'
p938
S'AP'
p939
sS'comments'
p940
S'D20'
p941
sS'path'
p942
S'/nfs/phn15/ar1/H/4KRED/4KAP_LC/062_PR5_D20'
p943
ssS'317'
p944
(dp945
S'project_id'
p946
S'0'
sS'duplicate'
p947
S'f'
sS'photometry_type'
p948
S'AP'
p949
sS'comments'
p950
S''
sS'path'
p951
S'/nfs/phn1/ar0/phn5_save/ar0/H/4KRED/AP/4KAP_LC/317'
p952
ssS'315'
p953
(dp954
S'project_id'
p955
S'0'
sS'duplicate'
p956
S'f'
sS'photometry_type'
p957
S'ISM'
p958
sS'comments'
p959
S''
sS'path'
p960
S'/nfs/phn1/ar0/phn5_save/ar0/H/apal/red4k/fields/315/ism/epdlc/'
p961
ssS'190'
p962
(dp963
S'project_id'
p964
S'0'
sS'duplicate'
p965
S'f'
sS'photometry_type'
p966
S'AP'
p967
sS'comments'
p968
S''
sS'path'
p969
S'/nfs/phn11/edrive5.1/LC/190'
p970
ssS'168'
p971
(dp972
S'project_id'
p973
S'0'
sS'duplicate'
p974
S'f'
sS'photometry_type'
p975
S'AP'
p976
sS'comments'
p977
S''
sS'path'
p978
S'/nfs/phn11/edrive3/LC/168'
p979
ssS'169'
p980
(dp981
S'project_id'
p982
S'0'
sS'duplicate'
p983
S'f'
sS'photometry_type'
p984
S'AP'
p985
sS'comments'
p986
S''
sS'path'
p987
S'/nfs/phn11/edrive3/LC/169'
p988
ssS'164'
p989
(dp990
S'project_id'
p991
S'0'
sS'duplicate'
p992
S'f'
sS'photometry_type'
p993
S'AP'
p994
sS'comments'
p995
S''
sS'path'
p996
S'/nfs/phn10/edrive1/4KAP_LC/164'
p997
ssS'165'
p998
(dp999
S'project_id'
p1000
S'0'
sS'duplicate'
p1001
S'f'
sS'photometry_type'
p1002
S'AP'
p1003
sS'comments'
p1004
S''
sS'path'
p1005
S'/nfs/phn9/ar0/4KAP_LC/165'
p1006
ssS'166'
p1007
(dp1008
S'project_id'
p1009
S'0'
sS'duplicate'
p1010
S'f'
sS'photometry_type'
p1011
S'AP'
p1012
sS'comments'
p1013
S''
sS'path'
p1014
S'/nfs/phn11/edrive5.1/LC/166'
p1015
ssS'167'
p1016
(dp1017
S'project_id'
p1018
S'0'
sS'duplicate'
p1019
S'f'
sS'photometry_type'
p1020
S'AP'
p1021
sS'comments'
p1022
S''
sS'path'
p1023
S'/nfs/phn11/edrive5.1/LC/167'
p1024
ssS'160'
p1025
(dp1026
S'project_id'
p1027
S'0'
sS'duplicate'
p1028
S'f'
sS'photometry_type'
p1029
S'AP'
p1030
sS'comments'
p1031
S''
sS'path'
p1032
S'/nfs/phn11/edrive5.1/LC/160'
p1033
ssS'161'
p1034
(dp1035
S'project_id'
p1036
S'0'
sS'duplicate'
p1037
S'f'
sS'photometry_type'
p1038
S'AP'
p1039
sS'comments'
p1040
S''
sS'path'
p1041
S'/nfs/phn11/edrive5.1/LC/161'
p1042
ssS'162'
p1043
(dp1044
S'project_id'
p1045
S'0'
sS'duplicate'
p1046
S'f'
sS'photometry_type'
p1047
S'AP'
p1048
sS'comments'
p1049
S''
sS'path'
p1050
S'/nfs/phn11/edrive5.1/LC/162'
p1051
ssS'163'
p1052
(dp1053
S'project_id'
p1054
S'0'
sS'duplicate'
p1055
S'f'
sS'photometry_type'
p1056
S'AP'
p1057
sS'comments'
p1058
S''
sS'path'
p1059
S'/nfs/phn10/edrive1/4KAP_LC/163'
p1060
ssS'314'
p1061
(dp1062
S'project_id'
p1063
S'0'
sS'duplicate'
p1064
S'f'
sS'photometry_type'
p1065
S'AP'
p1066
sS'comments'
p1067
S''
sS'path'
p1068
S'/nfs/phn15/ar0/H/4KRED/AP/4KAP_LC/314'
p1069
ssS'151'
p1070
(dp1071
S'project_id'
p1072
S'0'
sS'duplicate'
p1073
S'f'
sS'photometry_type'
p1074
S'AP'
p1075
sS'comments'
p1076
S''
sS'path'
p1077
S'/nfs/phn11/edrive5.1/LC/151'
p1078
ssS'150'
p1079
(dp1080
S'project_id'
p1081
S'0'
sS'duplicate'
p1082
S'f'
sS'photometry_type'
p1083
S'AP'
p1084
sS'comments'
p1085
S''
sS'path'
p1086
S'/nfs/phn15/ar0/H/4KRED/AP/4KAP_LC/150'
p1087
ssS'153'
p1088
(dp1089
S'project_id'
p1090
S'0'
sS'duplicate'
p1091
S'f'
sS'photometry_type'
p1092
S'AP'
p1093
sS'comments'
p1094
S''
sS'path'
p1095
S'/nfs/phn11/edrive5.1/LC/153'
p1096
ssS'152'
p1097
(dp1098
S'project_id'
p1099
S'0'
sS'duplicate'
p1100
S'f'
sS'photometry_type'
p1101
S'AP'
p1102
sS'comments'
p1103
S''
sS'path'
p1104
S'/nfs/phn11/edrive5.1/LC/152'
p1105
ssS'155'
p1106
(dp1107
S'project_id'
p1108
S'0'
sS'duplicate'
p1109
S'f'
sS'photometry_type'
p1110
S'ISM'
p1111
sS'comments'
p1112
S''
sS'path'
p1113
S'/nfs/hatsouth/edrive4.1/H/2KISM_LC/155'
p1114
ssS'154'
p1115
(dp1116
S'project_id'
p1117
S'0'
sS'duplicate'
p1118
S'f'
sS'photometry_type'
p1119
S'AP'
p1120
sS'comments'
p1121
S''
sS'path'
p1122
S'/nfs/phn15/ar1/H/4KRED/4KAP_LC/154'
p1123
ssS'159'
p1124
(dp1125
S'project_id'
p1126
S'0'
sS'duplicate'
p1127
S'f'
sS'photometry_type'
p1128
S'AP'
p1129
sS'comments'
p1130
S''
sS'path'
p1131
S'/nfs/phn11/edrive3/LC/159'
p1132
ssS'238'
p1133
(dp1134
S'project_id'
p1135
S'0'
sS'duplicate'
p1136
S'f'
sS'photometry_type'
p1137
S'AP'
p1138
sS'comments'
p1139
S''
sS'path'
p1140
S'/nfs/phn15/ar0/H/4KRED/AP/4KAP_LC/238'
p1141
ssS'239'
p1142
(dp1143
S'project_id'
p1144
S'0'
sS'duplicate'
p1145
S'f'
sS'photometry_type'
p1146
S'AP'
p1147
sS'comments'
p1148
S''
sS'path'
p1149
S'/nfs/phn11/edrive3/LC/239'
p1150
ssS'235'
p1151
(dp1152
S'project_id'
p1153
S'0'
sS'duplicate'
p1154
S'f'
sS'photometry_type'
p1155
S'AP'
p1156
sS'comments'
p1157
S''
sS'path'
p1158
S'/nfs/phn9/ar0/4KAP_LC/235'
p1159
ssS'236'
p1160
(dp1161
S'project_id'
p1162
S'0'
sS'duplicate'
p1163
S'f'
sS'photometry_type'
p1164
S'AP'
p1165
sS'comments'
p1166
S''
sS'path'
p1167
S'/nfs/phn11/edrive5.1/LC/236'
p1168
ssS'237'
p1169
(dp1170
S'project_id'
p1171
S'0'
sS'duplicate'
p1172
S'f'
sS'photometry_type'
p1173
S'AP'
p1174
sS'comments'
p1175
S''
sS'path'
p1176
S'/nfs/phn10/ar0/4KRED/AP/4KAP_LC/237'
p1177
ssS'146'
p1178
(dp1179
S'project_id'
p1180
S'0'
sS'duplicate'
p1181
S'f'
sS'photometry_type'
p1182
S'AP'
p1183
sS'comments'
p1184
S''
sS'path'
p1185
S'/nfs/phn9/ar0/4KAP_LC/146'
p1186
ssS'147'
p1187
(dp1188
S'project_id'
p1189
S'0'
sS'duplicate'
p1190
S'f'
sS'photometry_type'
p1191
S'AP'
p1192
sS'comments'
p1193
S''
sS'path'
p1194
S'/nfs/phn11/edrive5.1/LC/147'
p1195
ssS'203'
p1196
(dp1197
S'project_id'
p1198
S'0'
sS'duplicate'
p1199
S'f'
sS'photometry_type'
p1200
S'AP'
p1201
sS'comments'
p1202
S''
sS'path'
p1203
S'/nfs/phn11/edrive5.1/LC/203'
p1204
ssS'088'
p1205
(dp1206
S'project_id'
p1207
S'0'
sS'duplicate'
p1208
S'f'
sS'photometry_type'
p1209
S'AP'
p1210
sS'comments'
p1211
S'.2'
p1212
sS'path'
p1213
S'/nfs/phn10/edrive1/4KAP_LC/088.2'
p1214
ssS'142'
p1215
(dp1216
S'project_id'
p1217
S'0'
sS'duplicate'
p1218
S'f'
sS'photometry_type'
p1219
S'AP'
p1220
sS'comments'
p1221
S''
sS'path'
p1222
S'/nfs/phn10/edrive1/4KAP_LC/142'
p1223
ssS'143'
p1224
(dp1225
S'project_id'
p1226
S'0'
sS'duplicate'
p1227
S'f'
sS'photometry_type'
p1228
S'AP'
p1229
sS'comments'
p1230
S''
sS'path'
p1231
S'/nfs/phn10/edrive1/4KAP_LC/143'
p1232
ssS'207'
p1233
(dp1234
S'project_id'
p1235
S'0'
sS'duplicate'
p1236
S'f'
sS'photometry_type'
p1237
S'AP'
p1238
sS'comments'
p1239
S''
sS'path'
p1240
S'/nfs/phn11/edrive3/LC/207'
p1241
ssS'206'
p1242
(dp1243
S'project_id'
p1244
S'0'
sS'duplicate'
p1245
S'f'
sS'photometry_type'
p1246
S'AP'
p1247
sS'comments'
p1248
S''
sS'path'
p1249
S'/nfs/phn11/edrive3/LC/206'
p1250
ssS'209'
p1251
(dp1252
S'project_id'
p1253
S'0'
sS'duplicate'
p1254
S'f'
sS'photometry_type'
p1255
S'AP'
p1256
sS'comments'
p1257
S''
sS'path'
p1258
S'/nfs/phn11/ar0/4KRED/AP/4KAP_LC/209'
p1259
ssS'208'
p1260
(dp1261
S'project_id'
p1262
S'0'
sS'duplicate'
p1263
S'f'
sS'photometry_type'
p1264
S'AP'
p1265
sS'comments'
p1266
S''
sS'path'
p1267
S'/nfs/phn1/ar0/phn5_save/ar0/HOLD/HAT11/2013_WHAT_REDUCTION/2KRED/2KRED_LC/208'
p1268
ssS'081'
p1269
(dp1270
S'project_id'
p1271
S'0'
sS'duplicate'
p1272
S'f'
sS'photometry_type'
p1273
S'AP'
p1274
sS'comments'
p1275
S''
sS'path'
p1276
S'/nfs/phn10/ar0/4KRED/AP/4KAP_LC/081'
p1277
ssS'087'
p1278
(dp1279
S'project_id'
p1280
S'0'
sS'duplicate'
p1281
S'f'
sS'photometry_type'
p1282
S'AP'
p1283
sS'comments'
p1284
S''
sS'path'
p1285
S'/nfs/phn10/edrive1/4KAP_LC/087'
p1286
ssS'086'
p1287
(dp1288
S'project_id'
p1289
S'0'
sS'duplicate'
p1290
S'f'
sS'photometry_type'
p1291
S'AP'
p1292
sS'comments'
p1293
S''
sS'path'
p1294
S'/nfs/phn1/ar0/phn5_save/ar0/H/4KRED/AP/4KAP_LC/086'
p1295
ssS'148'
p1296
(dp1297
S'project_id'
p1298
S'0'
sS'duplicate'
p1299
S'f'
sS'photometry_type'
p1300
S'AP'
p1301
sS'comments'
p1302
S''
sS'path'
p1303
S'/nfs/phn11/edrive5.1/LC/148'
p1304
ssS'149'
p1305
(dp1306
S'project_id'
p1307
S'0'
sS'duplicate'
p1308
S'f'
sS'photometry_type'
p1309
S'AP'
p1310
sS'comments'
p1311
S''
sS'path'
p1312
S'/nfs/phn11/edrive5.1/LC/149'
p1313
ssS'357'
p1314
(dp1315
S'project_id'
p1316
S'0'
sS'duplicate'
p1317
S'f'
sS'photometry_type'
p1318
S'AP'
p1319
sS'comments'
p1320
S''
sS'path'
p1321
S'/nfs/phn10/edrive1/4KAP_LC/357'
p1322
ssS'267'
p1323
(dp1324
S'project_id'
p1325
S'0'
sS'duplicate'
p1326
S'f'
sS'photometry_type'
p1327
S'ISM'
p1328
sS'comments'
p1329
S''
sS'path'
p1330
S'/nfs/phn1/ar0/phn5_save/ar0/H/apal/red4k/fields/267/ism/epdlc/'
p1331
ssS'358'
p1332
(dp1333
S'project_id'
p1334
S'0'
sS'duplicate'
p1335
S'f'
sS'photometry_type'
p1336
S'AP'
p1337
sS'comments'
p1338
S''
sS'path'
p1339
S'/nfs/phn10/edrive1/4KAP_LC/358'
p1340
ss.