(lp1
S'HAT-036-0000254'
p2
aS'HAT-036-0003143'
p3
aS'HAT-037-0000002'
p4
aS'HAT-037-0000004'
p5
aS'HAT-037-0000007'
p6
aS'HAT-037-0000039'
p7
aS'HAT-037-0000051'
p8
aS'HAT-037-0000091'
p9
aS'HAT-037-0000267'
p10
aS'HAT-037-0000271'
p11
aS'HAT-037-0000280'
p12
aS'HAT-037-0000373'
p13
aS'HAT-037-0000415'
p14
aS'HAT-037-0000696'
p15
aS'HAT-037-0002499'
p16
aS'HAT-037-0004230'
p17
aS'HAT-037-0004422'
p18
aS'HAT-037-0004667'
p19
aS'HAT-037-0005318'
p20
aS'HAT-038-0000002'
p21
aS'HAT-038-0001511'
p22
aS'HAT-038-0011131'
p23
aS'HAT-051-0000820'
p24
aS'HAT-052-0000310'
p25
aS'HAT-053-0000794'
p26
aS'HAT-056-0000004'
p27
aS'HAT-056-0000011'
p28
aS'HAT-056-0000025'
p29
aS'HAT-056-0000037'
p30
aS'HAT-056-0000215'
p31
aS'HAT-056-0000234'
p32
aS'HAT-056-0000342'
p33
aS'HAT-056-0000466'
p34
aS'HAT-056-0000587'
p35
aS'HAT-056-0000659'
p36
aS'HAT-056-0001957'
p37
aS'HAT-056-0002405'
p38
aS'HAT-056-0002452'
p39
aS'HAT-056-0003116'
p40
aS'HAT-056-0003191'
p41
aS'HAT-056-0003742'
p42
aS'HAT-056-0003869'
p43
aS'HAT-056-0004922'
p44
aS'HAT-056-0006504'
p45
aS'HAT-056-0008280'
p46
aS'HAT-056-0045697'
p47
aS'HAT-056-0051985'
p48
aS'HAT-056-0056798'
p49
aS'HAT-056-0056995'
p50
aS'HAT-056-0626439'
p51
aS'HAT-056-0710034'
p52
aS'HAT-057-0000001'
p53
aS'HAT-057-0000004'
p54
aS'HAT-057-0000106'
p55
aS'HAT-057-0000248'
p56
aS'HAT-057-0000314'
p57
aS'HAT-057-0000318'
p58
aS'HAT-057-0000322'
p59
aS'HAT-057-0000415'
p60
aS'HAT-057-0000502'
p61
aS'HAT-057-0000989'
p62
aS'HAT-057-0001015'
p63
aS'HAT-057-0001765'
p64
aS'HAT-057-0002805'
p65
aS'HAT-057-0006747'
p66
aS'HAT-057-0015442'
p67
aS'HAT-057-0035103'
p68
aS'HAT-057-0036406'
p69
aS'HAT-057-0061939'
p70
aS'HAT-057-0110982'
p71
aS'HAT-058-0000001'
p72
aS'HAT-058-0000003'
p73
aS'HAT-058-0000015'
p74
aS'HAT-058-0000035'
p75
aS'HAT-058-0000060'
p76
aS'HAT-058-0000157'
p77
aS'HAT-058-0000272'
p78
aS'HAT-058-0000645'
p79
aS'HAT-058-0000923'
p80
aS'HAT-058-0001055'
p81
aS'HAT-058-0001268'
p82
aS'HAT-058-0001728'
p83
aS'HAT-058-0002783'
p84
aS'HAT-058-0002807'
p85
aS'HAT-058-0003654'
p86
aS'HAT-058-0007970'
p87
aS'HAT-058-0011105'
p88
aS'HAT-058-0015051'
p89
aS'HAT-058-0020351'
p90
aS'HAT-058-0038431'
p91
aS'HAT-058-0049658'
p92
aS'HAT-058-0049763'
p93
aS'HAT-058-0050036'
p94
aS'HAT-058-0073675'
p95
aS'HAT-058-0106845'
p96
aS'HAT-058-0773340'
p97
aS'HAT-059-0000002'
p98
aS'HAT-059-0000003'
p99
aS'HAT-059-0000005'
p100
aS'HAT-059-0000006'
p101
aS'HAT-059-0000008'
p102
aS'HAT-059-0000010'
p103
aS'HAT-059-0000015'
p104
aS'HAT-059-0000018'
p105
aS'HAT-059-0000022'
p106
aS'HAT-059-0000025'
p107
aS'HAT-059-0000027'
p108
aS'HAT-059-0000031'
p109
aS'HAT-059-0000053'
p110
aS'HAT-059-0000083'
p111
aS'HAT-059-0000090'
p112
aS'HAT-059-0000138'
p113
aS'HAT-059-0000170'
p114
aS'HAT-059-0000369'
p115
aS'HAT-059-0000402'
p116
aS'HAT-059-0000446'
p117
aS'HAT-059-0000532'
p118
aS'HAT-059-0000566'
p119
aS'HAT-059-0000578'
p120
aS'HAT-059-0000602'
p121
aS'HAT-059-0000621'
p122
aS'HAT-059-0000700'
p123
aS'HAT-059-0000742'
p124
aS'HAT-059-0000744'
p125
aS'HAT-059-0000753'
p126
aS'HAT-059-0000797'
p127
aS'HAT-059-0000834'
p128
aS'HAT-059-0000847'
p129
aS'HAT-059-0000893'
p130
aS'HAT-059-0000954'
p131
aS'HAT-059-0001004'
p132
aS'HAT-059-0001018'
p133
aS'HAT-059-0001023'
p134
aS'HAT-059-0001175'
p135
aS'HAT-059-0001219'
p136
aS'HAT-059-0001253'
p137
aS'HAT-059-0001350'
p138
aS'HAT-059-0001477'
p139
aS'HAT-059-0001575'
p140
aS'HAT-059-0001592'
p141
aS'HAT-059-0001673'
p142
aS'HAT-059-0001698'
p143
aS'HAT-059-0001755'
p144
aS'HAT-059-0002031'
p145
aS'HAT-059-0002492'
p146
aS'HAT-059-0002687'
p147
aS'HAT-059-0003017'
p148
aS'HAT-059-0003890'
p149
aS'HAT-059-0004278'
p150
aS'HAT-059-0005518'
p151
aS'HAT-059-0008878'
p152
aS'HAT-059-0009197'
p153
aS'HAT-059-0021266'
p154
aS'HAT-059-0066663'
p155
aS'HAT-059-0074544'
p156
aS'HAT-059-0078843'
p157
aS'HAT-059-0237480'
p158
aS'HAT-059-0808952'
p159
aS'HAT-061-0000011'
p160
aS'HAT-061-0000042'
p161
aS'HAT-061-0000050'
p162
aS'HAT-061-0000062'
p163
aS'HAT-061-0000091'
p164
aS'HAT-061-0000207'
p165
aS'HAT-061-0000232'
p166
aS'HAT-061-0000247'
p167
aS'HAT-061-0000296'
p168
aS'HAT-061-0000454'
p169
aS'HAT-061-0000501'
p170
aS'HAT-061-0000934'
p171
aS'HAT-061-0001274'
p172
aS'HAT-061-0001357'
p173
aS'HAT-061-0002337'
p174
aS'HAT-061-0002589'
p175
aS'HAT-061-0002638'
p176
aS'HAT-061-0002772'
p177
aS'HAT-061-0008002'
p178
aS'HAT-061-0009040'
p179
aS'HAT-061-0311253'
p180
aS'HAT-062-0000001'
p181
aS'HAT-062-0000003'
p182
aS'HAT-062-0000004'
p183
aS'HAT-062-0000046'
p184
aS'HAT-062-0000059'
p185
aS'HAT-062-0000091'
p186
aS'HAT-062-0000095'
p187
aS'HAT-062-0000120'
p188
aS'HAT-062-0000182'
p189
aS'HAT-062-0000213'
p190
aS'HAT-062-0000306'
p191
aS'HAT-062-0000499'
p192
aS'HAT-062-0000604'
p193
aS'HAT-062-0000664'
p194
aS'HAT-062-0000698'
p195
aS'HAT-062-0000823'
p196
aS'HAT-062-0001339'
p197
aS'HAT-062-0001360'
p198
aS'HAT-062-0003837'
p199
aS'HAT-062-0004119'
p200
aS'HAT-062-0004746'
p201
aS'HAT-062-0029161'
p202
aS'HAT-063-0000003'
p203
aS'HAT-063-0000004'
p204
aS'HAT-063-0000005'
p205
aS'HAT-063-0000006'
p206
aS'HAT-063-0000012'
p207
aS'HAT-063-0000046'
p208
aS'HAT-063-0000054'
p209
aS'HAT-063-0000158'
p210
aS'HAT-063-0000176'
p211
aS'HAT-063-0000266'
p212
aS'HAT-063-0000487'
p213
aS'HAT-063-0000831'
p214
aS'HAT-063-0004468'
p215
aS'HAT-063-0005403'
p216
aS'HAT-063-0007561'
p217
aS'HAT-063-0008687'
p218
aS'HAT-063-0021269'
p219
aS'HAT-064-0000001'
p220
aS'HAT-064-0000019'
p221
aS'HAT-064-0000040'
p222
aS'HAT-064-0000074'
p223
aS'HAT-064-0000168'
p224
aS'HAT-064-0000169'
p225
aS'HAT-064-0000197'
p226
aS'HAT-064-0000602'
p227
aS'HAT-064-0003647'
p228
aS'HAT-068-0000001'
p229
aS'HAT-068-0000002'
p230
aS'HAT-079-0000050'
p231
aS'HAT-079-0000197'
p232
aS'HAT-079-0013066'
p233
aS'HAT-079-0013369'
p234
aS'HAT-080-0000019'
p235
aS'HAT-080-0000212'
p236
aS'HAT-080-0000237'
p237
aS'HAT-080-0000442'
p238
aS'HAT-080-0000799'
p239
aS'HAT-080-0001660'
p240
aS'HAT-080-0003698'
p241
aS'HAT-080-0005478'
p242
aS'HAT-081-0000003'
p243
aS'HAT-081-0000005'
p244
aS'HAT-081-0000012'
p245
aS'HAT-081-0000015'
p246
aS'HAT-081-0000034'
p247
aS'HAT-081-0000061'
p248
aS'HAT-081-0000100'
p249
aS'HAT-081-0000143'
p250
aS'HAT-081-0000151'
p251
aS'HAT-081-0000325'
p252
aS'HAT-081-0000327'
p253
aS'HAT-081-0000414'
p254
aS'HAT-081-0000418'
p255
aS'HAT-081-0000814'
p256
aS'HAT-081-0000861'
p257
aS'HAT-081-0001219'
p258
aS'HAT-081-0001400'
p259
aS'HAT-081-0001665'
p260
aS'HAT-081-0002002'
p261
aS'HAT-081-0002630'
p262
aS'HAT-081-0003047'
p263
aS'HAT-081-0003305'
p264
aS'HAT-081-0005716'
p265
aS'HAT-081-0006573'
p266
aS'HAT-081-0009341'
p267
aS'HAT-081-0009834'
p268
aS'HAT-081-0010146'
p269
aS'HAT-081-0011656'
p270
aS'HAT-081-0012119'
p271
aS'HAT-081-0012735'
p272
aS'HAT-081-0012852'
p273
aS'HAT-081-0012875'
p274
aS'HAT-081-0015469'
p275
aS'HAT-081-0017888'
p276
aS'HAT-081-0020854'
p277
aS'HAT-081-0026984'
p278
aS'HAT-081-0027713'
p279
aS'HAT-081-0030403'
p280
aS'HAT-081-0035323'
p281
aS'HAT-081-0078986'
p282
aS'HAT-082-0000005'
p283
aS'HAT-082-0000029'
p284
aS'HAT-082-0000055'
p285
aS'HAT-082-0000096'
p286
aS'HAT-082-0000154'
p287
aS'HAT-082-0000155'
p288
aS'HAT-082-0000203'
p289
aS'HAT-082-0000292'
p290
aS'HAT-082-0000389'
p291
aS'HAT-082-0000534'
p292
aS'HAT-082-0000856'
p293
aS'HAT-082-0000859'
p294
aS'HAT-082-0001742'
p295
aS'HAT-082-0003632'
p296
aS'HAT-082-0006720'
p297
aS'HAT-082-0010719'
p298
aS'HAT-082-0013676'
p299
aS'HAT-082-0014206'
p300
aS'HAT-082-0015453'
p301
aS'HAT-082-0034612'
p302
aS'HAT-082-0035643'
p303
aS'HAT-082-0038084'
p304
aS'HAT-082-0051366'
p305
aS'HAT-082-0286953'
p306
aS'HAT-085-0000015'
p307
aS'HAT-085-0000286'
p308
aS'HAT-085-0001047'
p309
aS'HAT-085-0001058'
p310
aS'HAT-085-0003472'
p311
aS'HAT-085-0004083'
p312
aS'HAT-085-0025181'
p313
aS'HAT-085-0065152'
p314
aS'HAT-085-0424437'
p315
aS'HAT-086-0000002'
p316
aS'HAT-086-0000003'
p317
aS'HAT-086-0000014'
p318
aS'HAT-086-0000018'
p319
aS'HAT-086-0000028'
p320
aS'HAT-086-0000030'
p321
aS'HAT-086-0000063'
p322
aS'HAT-086-0000116'
p323
aS'HAT-086-0000268'
p324
aS'HAT-086-0000310'
p325
aS'HAT-086-0000318'
p326
aS'HAT-086-0000347'
p327
aS'HAT-086-0000413'
p328
aS'HAT-086-0000567'
p329
aS'HAT-086-0000706'
p330
aS'HAT-086-0001024'
p331
aS'HAT-086-0001031'
p332
aS'HAT-086-0001154'
p333
aS'HAT-086-0001164'
p334
aS'HAT-086-0001307'
p335
aS'HAT-086-0001512'
p336
aS'HAT-086-0001943'
p337
aS'HAT-086-0002718'
p338
aS'HAT-086-0002931'
p339
aS'HAT-086-0003015'
p340
aS'HAT-086-0003731'
p341
aS'HAT-086-0003735'
p342
aS'HAT-086-0005205'
p343
aS'HAT-086-0006404'
p344
aS'HAT-086-0007407'
p345
aS'HAT-086-0007654'
p346
aS'HAT-086-0007776'
p347
aS'HAT-086-0008141'
p348
aS'HAT-086-0008548'
p349
aS'HAT-086-0008911'
p350
aS'HAT-086-0009622'
p351
aS'HAT-086-0009889'
p352
aS'HAT-086-0009974'
p353
aS'HAT-086-0015006'
p354
aS'HAT-086-0015185'
p355
aS'HAT-086-0017949'
p356
aS'HAT-086-0019415'
p357
aS'HAT-086-0022206'
p358
aS'HAT-086-0036934'
p359
aS'HAT-086-0042579'
p360
aS'HAT-086-0052906'
p361
aS'HAT-086-0068282'
p362
aS'HAT-086-0069932'
p363
aS'HAT-086-0179462'
p364
aS'HAT-086-0206310'
p365
aS'HAT-086-0225739'
p366
aS'HAT-086-0396500'
p367
aS'HAT-086-0448328'
p368
aS'HAT-087-0000001'
p369
aS'HAT-087-0000002'
p370
aS'HAT-087-0000011'
p371
aS'HAT-087-0000020'
p372
aS'HAT-087-0000051'
p373
aS'HAT-087-0000054'
p374
aS'HAT-087-0000098'
p375
aS'HAT-087-0000131'
p376
aS'HAT-087-0000197'
p377
aS'HAT-087-0000230'
p378
aS'HAT-087-0000235'
p379
aS'HAT-087-0000295'
p380
aS'HAT-087-0000443'
p381
aS'HAT-087-0000591'
p382
aS'HAT-087-0000675'
p383
aS'HAT-087-0000697'
p384
aS'HAT-087-0000711'
p385
aS'HAT-087-0001281'
p386
aS'HAT-087-0001747'
p387
aS'HAT-087-0002226'
p388
aS'HAT-087-0002414'
p389
aS'HAT-087-0002662'
p390
aS'HAT-087-0003759'
p391
aS'HAT-087-0004081'
p392
aS'HAT-087-0004532'
p393
aS'HAT-087-0004877'
p394
aS'HAT-087-0005109'
p395
aS'HAT-087-0006233'
p396
aS'HAT-087-0006387'
p397
aS'HAT-087-0007321'
p398
aS'HAT-087-0012338'
p399
aS'HAT-087-0014474'
p400
aS'HAT-087-0015053'
p401
aS'HAT-087-0017663'
p402
aS'HAT-087-0017903'
p403
aS'HAT-087-0018179'
p404
aS'HAT-087-0019610'
p405
aS'HAT-087-0020583'
p406
aS'HAT-087-0023671'
p407
aS'HAT-087-0026772'
p408
aS'HAT-087-0034092'
p409
aS'HAT-087-0040133'
p410
aS'HAT-087-0049865'
p411
aS'HAT-087-0059668'
p412
aS'HAT-087-0064281'
p413
aS'HAT-087-0076119'
p414
aS'HAT-087-0450453'
p415
aS'HAT-087-0530618'
p416
aS'HAT-088-0000001'
p417
aS'HAT-088-0000002'
p418
aS'HAT-088-0000017'
p419
aS'HAT-088-0000018'
p420
aS'HAT-088-0000026'
p421
aS'HAT-088-0000041'
p422
aS'HAT-088-0000062'
p423
aS'HAT-088-0000067'
p424
aS'HAT-088-0000105'
p425
aS'HAT-088-0000108'
p426
aS'HAT-088-0000173'
p427
aS'HAT-088-0000290'
p428
aS'HAT-088-0000311'
p429
aS'HAT-088-0000327'
p430
aS'HAT-088-0000347'
p431
aS'HAT-088-0000408'
p432
aS'HAT-088-0000431'
p433
aS'HAT-088-0000796'
p434
aS'HAT-088-0000863'
p435
aS'HAT-088-0001135'
p436
aS'HAT-088-0001244'
p437
aS'HAT-088-0003583'
p438
aS'HAT-088-0003868'
p439
aS'HAT-088-0003956'
p440
aS'HAT-088-0004779'
p441
aS'HAT-088-0005039'
p442
aS'HAT-088-0005845'
p443
aS'HAT-088-0007637'
p444
aS'HAT-088-0008417'
p445
aS'HAT-088-0009183'
p446
aS'HAT-088-0010663'
p447
aS'HAT-088-0013107'
p448
aS'HAT-088-0014575'
p449
aS'HAT-088-0015390'
p450
aS'HAT-088-0017711'
p451
aS'HAT-088-0018104'
p452
aS'HAT-088-0020306'
p453
aS'HAT-088-0022652'
p454
aS'HAT-088-0022700'
p455
aS'HAT-088-0030750'
p456
aS'HAT-088-0032993'
p457
aS'HAT-088-0036878'
p458
aS'HAT-088-0053484'
p459
aS'HAT-088-0073817'
p460
aS'HAT-088-0074301'
p461
aS'HAT-088-0222079'
p462
aS'HAT-089-0000001'
p463
aS'HAT-089-0000002'
p464
aS'HAT-089-0000003'
p465
aS'HAT-089-0000019'
p466
aS'HAT-089-0000021'
p467
aS'HAT-089-0000026'
p468
aS'HAT-089-0000040'
p469
aS'HAT-089-0000046'
p470
aS'HAT-089-0000056'
p471
aS'HAT-089-0000087'
p472
aS'HAT-089-0000159'
p473
aS'HAT-089-0000175'
p474
aS'HAT-089-0000183'
p475
aS'HAT-089-0000213'
p476
aS'HAT-089-0000218'
p477
aS'HAT-089-0000247'
p478
aS'HAT-089-0000326'
p479
aS'HAT-089-0000336'
p480
aS'HAT-089-0000358'
p481
aS'HAT-089-0000373'
p482
aS'HAT-089-0000386'
p483
aS'HAT-089-0000516'
p484
aS'HAT-089-0000578'
p485
aS'HAT-089-0000593'
p486
aS'HAT-089-0000762'
p487
aS'HAT-089-0000770'
p488
aS'HAT-089-0000913'
p489
aS'HAT-089-0000980'
p490
aS'HAT-089-0001287'
p491
aS'HAT-089-0001615'
p492
aS'HAT-089-0002102'
p493
aS'HAT-089-0002223'
p494
aS'HAT-089-0003540'
p495
aS'HAT-089-0003999'
p496
aS'HAT-089-0004026'
p497
aS'HAT-089-0004652'
p498
aS'HAT-089-0006077'
p499
aS'HAT-089-0007215'
p500
aS'HAT-089-0007847'
p501
aS'HAT-089-0009573'
p502
aS'HAT-089-0009975'
p503
aS'HAT-089-0010517'
p504
aS'HAT-089-0015552'
p505
aS'HAT-089-0018835'
p506
aS'HAT-089-0027795'
p507
aS'HAT-089-0029508'
p508
aS'HAT-089-0034335'
p509
aS'HAT-089-0050331'
p510
aS'HAT-089-0332201'
p511
aS'HAT-089-0374235'
p512
aS'HAT-089-0661847'
p513
aS'HAT-090-0000005'
p514
aS'HAT-090-0000007'
p515
aS'HAT-090-0000008'
p516
aS'HAT-090-0000012'
p517
aS'HAT-090-0000013'
p518
aS'HAT-090-0000030'
p519
aS'HAT-090-0000033'
p520
aS'HAT-090-0000046'
p521
aS'HAT-090-0000055'
p522
aS'HAT-090-0000150'
p523
aS'HAT-090-0000251'
p524
aS'HAT-090-0000271'
p525
aS'HAT-090-0000623'
p526
aS'HAT-090-0001129'
p527
aS'HAT-090-0001763'
p528
aS'HAT-090-0001832'
p529
aS'HAT-090-0002270'
p530
aS'HAT-090-0003221'
p531
aS'HAT-090-0004556'
p532
aS'HAT-090-0025668'
p533
aS'HAT-090-0025720'
p534
aS'HAT-090-0045266'
p535
aS'HAT-091-0003438'
p536
aS'HAT-091-0003679'
p537
aS'HAT-091-0016338'
p538
aS'HAT-092-0000005'
p539
aS'HAT-092-0000006'
p540
aS'HAT-092-0000017'
p541
aS'HAT-092-0000022'
p542
aS'HAT-092-0000030'
p543
aS'HAT-092-0000033'
p544
aS'HAT-092-0000074'
p545
aS'HAT-092-0000131'
p546
aS'HAT-092-0000317'
p547
aS'HAT-092-0000499'
p548
aS'HAT-092-0000653'
p549
aS'HAT-092-0001117'
p550
aS'HAT-092-0001616'
p551
aS'HAT-092-0001639'
p552
aS'HAT-092-0001822'
p553
aS'HAT-092-0002461'
p554
aS'HAT-092-0002760'
p555
aS'HAT-092-0006183'
p556
aS'HAT-092-0007329'
p557
aS'HAT-092-0012765'
p558
aS'HAT-092-0013505'
p559
aS'HAT-092-0013542'
p560
aS'HAT-092-0014777'
p561
aS'HAT-092-0018742'
p562
aS'HAT-092-0044804'
p563
aS'HAT-092-0052815'
p564
aS'HAT-092-0272909'
p565
aS'HAT-092-0872747'
p566
aS'HAT-093-0000001'
p567
aS'HAT-093-0000007'
p568
aS'HAT-093-0000009'
p569
aS'HAT-093-0000017'
p570
aS'HAT-093-0000177'
p571
aS'HAT-093-0000211'
p572
aS'HAT-093-0000229'
p573
aS'HAT-093-0000363'
p574
aS'HAT-093-0000422'
p575
aS'HAT-093-0000489'
p576
aS'HAT-093-0000657'
p577
aS'HAT-093-0000721'
p578
aS'HAT-093-0000896'
p579
aS'HAT-093-0000927'
p580
aS'HAT-093-0000953'
p581
aS'HAT-093-0001397'
p582
aS'HAT-093-0002185'
p583
aS'HAT-093-0002580'
p584
aS'HAT-093-0003987'
p585
aS'HAT-093-0005805'
p586
aS'HAT-093-0006686'
p587
aS'HAT-093-0007032'
p588
aS'HAT-093-0007604'
p589
aS'HAT-093-0009691'
p590
aS'HAT-093-0010856'
p591
aS'HAT-093-0012789'
p592
aS'HAT-093-0013479'
p593
aS'HAT-093-0013781'
p594
aS'HAT-093-0038334'
p595
aS'HAT-093-0040515'
p596
aS'HAT-093-0048500'
p597
aS'HAT-094-0000002'
p598
aS'HAT-094-0000004'
p599
aS'HAT-094-0000006'
p600
aS'HAT-094-0000010'
p601
aS'HAT-094-0000015'
p602
aS'HAT-094-0000017'
p603
aS'HAT-094-0000019'
p604
aS'HAT-094-0000042'
p605
aS'HAT-094-0000081'
p606
aS'HAT-094-0000200'
p607
aS'HAT-094-0000215'
p608
aS'HAT-094-0000251'
p609
aS'HAT-094-0000448'
p610
aS'HAT-094-0000457'
p611
aS'HAT-094-0001548'
p612
aS'HAT-094-0007398'
p613
aS'HAT-094-0012791'
p614
aS'HAT-094-0013710'
p615
aS'HAT-094-0034989'
p616
aS'HAT-095-0000002'
p617
aS'HAT-095-0000003'
p618
aS'HAT-095-0000020'
p619
aS'HAT-095-0000022'
p620
aS'HAT-095-0000028'
p621
aS'HAT-095-0000040'
p622
aS'HAT-095-0000116'
p623
aS'HAT-095-0000142'
p624
aS'HAT-095-0000254'
p625
aS'HAT-095-0000266'
p626
aS'HAT-095-0000269'
p627
aS'HAT-095-0000310'
p628
aS'HAT-095-0000396'
p629
aS'HAT-095-0001631'
p630
aS'HAT-095-0001879'
p631
aS'HAT-095-0005509'
p632
aS'HAT-095-0009217'
p633
aS'HAT-095-0011797'
p634
aS'HAT-095-0016117'
p635
aS'HAT-095-0016626'
p636
aS'HAT-095-0017322'
p637
aS'HAT-095-0019044'
p638
aS'HAT-095-0019841'
p639
aS'HAT-095-0022857'
p640
aS'HAT-095-0028072'
p641
aS'HAT-095-0033572'
p642
aS'HAT-095-0108261'
p643
aS'HAT-095-0218850'
p644
aS'HAT-096-0000001'
p645
aS'HAT-096-0000002'
p646
aS'HAT-096-0000003'
p647
aS'HAT-096-0000004'
p648
aS'HAT-096-0000008'
p649
aS'HAT-096-0000009'
p650
aS'HAT-096-0000015'
p651
aS'HAT-096-0000031'
p652
aS'HAT-096-0000156'
p653
aS'HAT-096-0000237'
p654
aS'HAT-096-0007747'
p655
aS'HAT-097-0000001'
p656
aS'HAT-097-0009482'
p657
aS'HAT-098-0000239'
p658
aS'HAT-100-0000487'
p659
aS'HAT-100-0000533'
p660
aS'HAT-100-0000710'
p661
aS'HAT-100-0000977'
p662
aS'HAT-100-0002338'
p663
aS'HAT-101-0000012'
p664
aS'HAT-101-0000031'
p665
aS'HAT-101-0000044'
p666
aS'HAT-101-0000050'
p667
aS'HAT-101-0002213'
p668
aS'HAT-101-0003683'
p669
aS'HAT-101-0004923'
p670
aS'HAT-101-0005024'
p671
aS'HAT-101-0007088'
p672
aS'HAT-102-0000034'
p673
aS'HAT-102-0000363'
p674
aS'HAT-102-0004140'
p675
aS'HAT-103-0000002'
p676
aS'HAT-103-0000970'
p677
aS'HAT-104-0000041'
p678
aS'HAT-104-0004322'
p679
aS'HAT-105-0000013'
p680
aS'HAT-106-0000022'
p681
aS'HAT-106-0000422'
p682
aS'HAT-107-0000002'
p683
aS'HAT-107-0004403'
p684
aS'HAT-107-0005897'
p685
aS'HAT-108-0000002'
p686
aS'HAT-108-0003096'
p687
aS'HAT-108-0004206'
p688
aS'HAT-109-0001268'
p689
aS'HAT-110-0002382'
p690
aS'HAT-110-0010026'
p691
aS'HAT-111-0000003'
p692
aS'HAT-111-0000015'
p693
aS'HAT-111-0000096'
p694
aS'HAT-111-0000493'
p695
aS'HAT-111-0003210'
p696
aS'HAT-111-0004482'
p697
aS'HAT-112-0000012'
p698
aS'HAT-112-0000050'
p699
aS'HAT-112-0000096'
p700
aS'HAT-112-0000117'
p701
aS'HAT-112-0000217'
p702
aS'HAT-112-0001188'
p703
aS'HAT-112-0001601'
p704
aS'HAT-112-0002092'
p705
aS'HAT-112-0002484'
p706
aS'HAT-112-0004914'
p707
aS'HAT-112-0007514'
p708
aS'HAT-113-0000007'
p709
aS'HAT-113-0000015'
p710
aS'HAT-113-0000032'
p711
aS'HAT-113-0000107'
p712
aS'HAT-113-0000132'
p713
aS'HAT-113-0000156'
p714
aS'HAT-113-0000380'
p715
aS'HAT-113-0000420'
p716
aS'HAT-113-0000647'
p717
aS'HAT-113-0000761'
p718
aS'HAT-113-0000944'
p719
aS'HAT-113-0001027'
p720
aS'HAT-113-0002034'
p721
aS'HAT-113-0002512'
p722
aS'HAT-113-0003294'
p723
aS'HAT-113-0003544'
p724
aS'HAT-113-0006900'
p725
aS'HAT-113-0007428'
p726
aS'HAT-113-0009054'
p727
aS'HAT-113-0009587'
p728
aS'HAT-113-0011722'
p729
aS'HAT-114-0000002'
p730
aS'HAT-114-0000007'
p731
aS'HAT-114-0000011'
p732
aS'HAT-114-0000020'
p733
aS'HAT-114-0000036'
p734
aS'HAT-114-0000040'
p735
aS'HAT-114-0000047'
p736
aS'HAT-114-0000070'
p737
aS'HAT-114-0000075'
p738
aS'HAT-114-0000119'
p739
aS'HAT-114-0000173'
p740
aS'HAT-114-0000240'
p741
aS'HAT-114-0000442'
p742
aS'HAT-114-0000645'
p743
aS'HAT-114-0001800'
p744
aS'HAT-114-0002366'
p745
aS'HAT-114-0002405'
p746
aS'HAT-114-0003844'
p747
aS'HAT-114-0005292'
p748
aS'HAT-114-0006254'
p749
aS'HAT-114-0008875'
p750
aS'HAT-115-0000001'
p751
aS'HAT-115-0000002'
p752
aS'HAT-115-0000003'
p753
aS'HAT-115-0000006'
p754
aS'HAT-115-0000007'
p755
aS'HAT-115-0000008'
p756
aS'HAT-115-0000010'
p757
aS'HAT-115-0000011'
p758
aS'HAT-115-0000015'
p759
aS'HAT-115-0000048'
p760
aS'HAT-115-0000184'
p761
aS'HAT-115-0000204'
p762
aS'HAT-115-0000240'
p763
aS'HAT-115-0000246'
p764
aS'HAT-115-0000459'
p765
aS'HAT-115-0000462'
p766
aS'HAT-115-0000552'
p767
aS'HAT-115-0000627'
p768
aS'HAT-115-0000698'
p769
aS'HAT-115-0000735'
p770
aS'HAT-115-0001318'
p771
aS'HAT-115-0001392'
p772
aS'HAT-115-0001452'
p773
aS'HAT-115-0001801'
p774
aS'HAT-115-0002112'
p775
aS'HAT-115-0002647'
p776
aS'HAT-115-0003066'
p777
aS'HAT-115-0004128'
p778
aS'HAT-115-0004431'
p779
aS'HAT-115-0005385'
p780
aS'HAT-115-0005871'
p781
aS'HAT-115-0007391'
p782
aS'HAT-115-0009097'
p783
aS'HAT-115-0010155'
p784
aS'HAT-115-0012385'
p785
aS'HAT-115-0014534'
p786
aS'HAT-115-0015730'
p787
aS'HAT-115-0027370'
p788
aS'HAT-115-0027885'
p789
aS'HAT-115-0030467'
p790
aS'HAT-115-0030779'
p791
aS'HAT-115-0072181'
p792
aS'HAT-116-0000002'
p793
aS'HAT-116-0000008'
p794
aS'HAT-116-0000010'
p795
aS'HAT-116-0000014'
p796
aS'HAT-116-0000056'
p797
aS'HAT-116-0000083'
p798
aS'HAT-116-0000087'
p799
aS'HAT-116-0000156'
p800
aS'HAT-116-0000170'
p801
aS'HAT-116-0000214'
p802
aS'HAT-116-0000288'
p803
aS'HAT-116-0000326'
p804
aS'HAT-116-0000362'
p805
aS'HAT-116-0000364'
p806
aS'HAT-116-0000389'
p807
aS'HAT-116-0000398'
p808
aS'HAT-116-0000443'
p809
aS'HAT-116-0000624'
p810
aS'HAT-116-0000799'
p811
aS'HAT-116-0000996'
p812
aS'HAT-116-0001091'
p813
aS'HAT-116-0001331'
p814
aS'HAT-116-0001412'
p815
aS'HAT-116-0001634'
p816
aS'HAT-116-0001846'
p817
aS'HAT-116-0001903'
p818
aS'HAT-116-0004938'
p819
aS'HAT-116-0005576'
p820
aS'HAT-116-0008363'
p821
aS'HAT-116-0011256'
p822
aS'HAT-116-0014818'
p823
aS'HAT-116-0016050'
p824
aS'HAT-116-0019025'
p825
aS'HAT-116-0021418'
p826
aS'HAT-116-0025814'
p827
aS'HAT-116-0026966'
p828
aS'HAT-116-0028995'
p829
aS'HAT-116-0034367'
p830
aS'HAT-116-0057594'
p831
aS'HAT-117-0000003'
p832
aS'HAT-117-0000021'
p833
aS'HAT-117-0000074'
p834
aS'HAT-117-0000080'
p835
aS'HAT-117-0000165'
p836
aS'HAT-117-0000671'
p837
aS'HAT-117-0000721'
p838
aS'HAT-117-0000902'
p839
aS'HAT-117-0001039'
p840
aS'HAT-117-0002774'
p841
aS'HAT-117-0007837'
p842
aS'HAT-117-0010706'
p843
aS'HAT-117-0059158'
p844
aS'HAT-117-0300308'
p845
aS'HAT-119-0001049'
p846
aS'HAT-119-0001293'
p847
aS'HAT-119-0002680'
p848
aS'HAT-119-0003104'
p849
aS'HAT-119-0004425'
p850
aS'HAT-120-0000802'
p851
aS'HAT-120-0003185'
p852
aS'HAT-120-0043344'
p853
aS'HAT-120-0060318'
p854
aS'HAT-121-0000002'
p855
aS'HAT-121-0000005'
p856
aS'HAT-121-0000006'
p857
aS'HAT-121-0000022'
p858
aS'HAT-121-0000068'
p859
aS'HAT-121-0000082'
p860
aS'HAT-121-0000233'
p861
aS'HAT-121-0000256'
p862
aS'HAT-121-0000297'
p863
aS'HAT-121-0000310'
p864
aS'HAT-121-0000364'
p865
aS'HAT-121-0000439'
p866
aS'HAT-121-0000475'
p867
aS'HAT-121-0000536'
p868
aS'HAT-121-0000619'
p869
aS'HAT-121-0000631'
p870
aS'HAT-121-0000687'
p871
aS'HAT-121-0000977'
p872
aS'HAT-121-0000985'
p873
aS'HAT-121-0001039'
p874
aS'HAT-121-0001984'
p875
aS'HAT-121-0002800'
p876
aS'HAT-121-0003150'
p877
aS'HAT-121-0004018'
p878
aS'HAT-121-0004953'
p879
aS'HAT-121-0005745'
p880
aS'HAT-121-0008268'
p881
aS'HAT-121-0013142'
p882
aS'HAT-121-0013848'
p883
aS'HAT-121-0014641'
p884
aS'HAT-121-0015465'
p885
aS'HAT-121-0020222'
p886
aS'HAT-121-0022414'
p887
aS'HAT-121-0022736'
p888
aS'HAT-121-0025327'
p889
aS'HAT-121-0043209'
p890
aS'HAT-121-0528262'
p891
aS'HAT-122-0000001'
p892
aS'HAT-122-0000003'
p893
aS'HAT-122-0000016'
p894
aS'HAT-122-0000112'
p895
aS'HAT-122-0000127'
p896
aS'HAT-122-0000138'
p897
aS'HAT-122-0000157'
p898
aS'HAT-122-0000318'
p899
aS'HAT-122-0000391'
p900
aS'HAT-122-0000531'
p901
aS'HAT-122-0000850'
p902
aS'HAT-122-0000877'
p903
aS'HAT-122-0001477'
p904
aS'HAT-122-0001821'
p905
aS'HAT-122-0002036'
p906
aS'HAT-122-0002094'
p907
aS'HAT-122-0003108'
p908
aS'HAT-122-0003190'
p909
aS'HAT-122-0011222'
p910
aS'HAT-122-0013691'
p911
aS'HAT-122-0015153'
p912
aS'HAT-122-0016520'
p913
aS'HAT-122-0018736'
p914
aS'HAT-123-0000001'
p915
aS'HAT-123-0000002'
p916
aS'HAT-123-0000003'
p917
aS'HAT-123-0000004'
p918
aS'HAT-123-0000009'
p919
aS'HAT-123-0000017'
p920
aS'HAT-123-0000021'
p921
aS'HAT-123-0000023'
p922
aS'HAT-123-0000034'
p923
aS'HAT-123-0000050'
p924
aS'HAT-123-0000094'
p925
aS'HAT-123-0000140'
p926
aS'HAT-123-0000285'
p927
aS'HAT-123-0000305'
p928
aS'HAT-123-0000388'
p929
aS'HAT-123-0000404'
p930
aS'HAT-123-0000452'
p931
aS'HAT-123-0000887'
p932
aS'HAT-123-0000989'
p933
aS'HAT-123-0001617'
p934
aS'HAT-123-0002303'
p935
aS'HAT-123-0002868'
p936
aS'HAT-123-0003668'
p937
aS'HAT-123-0004507'
p938
aS'HAT-123-0004993'
p939
aS'HAT-123-0005295'
p940
aS'HAT-123-0005740'
p941
aS'HAT-123-0007511'
p942
aS'HAT-123-0008536'
p943
aS'HAT-123-0014928'
p944
aS'HAT-123-0016575'
p945
aS'HAT-123-0029475'
p946
aS'HAT-123-0033085'
p947
aS'HAT-124-0000001'
p948
aS'HAT-124-0000004'
p949
aS'HAT-124-0000007'
p950
aS'HAT-124-0000022'
p951
aS'HAT-124-0000027'
p952
aS'HAT-124-0000053'
p953
aS'HAT-124-0000103'
p954
aS'HAT-124-0000504'
p955
aS'HAT-124-0000698'
p956
aS'HAT-124-0001209'
p957
aS'HAT-124-0001445'
p958
aS'HAT-124-0001484'
p959
aS'HAT-124-0002553'
p960
aS'HAT-124-0005102'
p961
aS'HAT-124-0007727'
p962
aS'HAT-124-0012069'
p963
aS'HAT-124-0015562'
p964
aS'HAT-124-0023596'
p965
aS'HAT-125-0000005'
p966
aS'HAT-125-0000007'
p967
aS'HAT-125-0000026'
p968
aS'HAT-125-0000061'
p969
aS'HAT-125-0000086'
p970
aS'HAT-125-0000093'
p971
aS'HAT-125-0000113'
p972
aS'HAT-125-0000309'
p973
aS'HAT-125-0000400'
p974
aS'HAT-125-0000403'
p975
aS'HAT-125-0000424'
p976
aS'HAT-125-0000593'
p977
aS'HAT-125-0000777'
p978
aS'HAT-125-0000863'
p979
aS'HAT-125-0001038'
p980
aS'HAT-125-0002320'
p981
aS'HAT-125-0003512'
p982
aS'HAT-125-0005338'
p983
aS'HAT-125-0006529'
p984
aS'HAT-125-0008336'
p985
aS'HAT-125-0010856'
p986
aS'HAT-125-0012146'
p987
aS'HAT-125-0017658'
p988
aS'HAT-125-0020593'
p989
aS'HAT-125-0191856'
p990
aS'HAT-126-0000092'
p991
aS'HAT-126-0000108'
p992
aS'HAT-126-0000257'
p993
aS'HAT-126-0000314'
p994
aS'HAT-126-0000366'
p995
aS'HAT-126-0000367'
p996
aS'HAT-126-0000530'
p997
aS'HAT-126-0000785'
p998
aS'HAT-126-0001276'
p999
aS'HAT-126-0001417'
p1000
aS'HAT-126-0001760'
p1001
aS'HAT-126-0003959'
p1002
aS'HAT-126-0005861'
p1003
aS'HAT-126-0010463'
p1004
aS'HAT-126-0013504'
p1005
aS'HAT-126-0017154'
p1006
aS'HAT-126-0020233'
p1007
aS'HAT-126-0020471'
p1008
aS'HAT-126-0021154'
p1009
aS'HAT-126-0021724'
p1010
aS'HAT-126-0021985'
p1011
aS'HAT-126-0027165'
p1012
aS'HAT-126-0028617'
p1013
aS'HAT-126-0028802'
p1014
aS'HAT-126-0029694'
p1015
aS'HAT-126-0032086'
p1016
aS'HAT-126-0032570'
p1017
aS'HAT-126-0036040'
p1018
aS'HAT-126-0036608'
p1019
aS'HAT-126-0036831'
p1020
aS'HAT-127-0000026'
p1021
aS'HAT-127-0000027'
p1022
aS'HAT-127-0000029'
p1023
aS'HAT-127-0000054'
p1024
aS'HAT-127-0000125'
p1025
aS'HAT-127-0000141'
p1026
aS'HAT-127-0000223'
p1027
aS'HAT-127-0000235'
p1028
aS'HAT-127-0000250'
p1029
aS'HAT-127-0000273'
p1030
aS'HAT-127-0000305'
p1031
aS'HAT-127-0000312'
p1032
aS'HAT-127-0000376'
p1033
aS'HAT-127-0000443'
p1034
aS'HAT-127-0000485'
p1035
aS'HAT-127-0000487'
p1036
aS'HAT-127-0000632'
p1037
aS'HAT-127-0000743'
p1038
aS'HAT-127-0000817'
p1039
aS'HAT-127-0000931'
p1040
aS'HAT-127-0000974'
p1041
aS'HAT-127-0001256'
p1042
aS'HAT-127-0001551'
p1043
aS'HAT-127-0001783'
p1044
aS'HAT-127-0001807'
p1045
aS'HAT-127-0001820'
p1046
aS'HAT-127-0002338'
p1047
aS'HAT-127-0002922'
p1048
aS'HAT-127-0004449'
p1049
aS'HAT-127-0004752'
p1050
aS'HAT-127-0005770'
p1051
aS'HAT-127-0009124'
p1052
aS'HAT-127-0020591'
p1053
aS'HAT-127-0023860'
p1054
aS'HAT-127-0030828'
p1055
aS'HAT-127-0035749'
p1056
aS'HAT-127-0038203'
p1057
aS'HAT-127-0038538'
p1058
aS'HAT-127-0040601'
p1059
aS'HAT-127-0043657'
p1060
aS'HAT-127-0043771'
p1061
aS'HAT-127-0044742'
p1062
aS'HAT-127-0436711'
p1063
aS'HAT-128-0000033'
p1064
aS'HAT-128-0000035'
p1065
aS'HAT-128-0000046'
p1066
aS'HAT-128-0000155'
p1067
aS'HAT-128-0000170'
p1068
aS'HAT-128-0000212'
p1069
aS'HAT-128-0000285'
p1070
aS'HAT-128-0000337'
p1071
aS'HAT-128-0000420'
p1072
aS'HAT-128-0000538'
p1073
aS'HAT-128-0000643'
p1074
aS'HAT-128-0000711'
p1075
aS'HAT-128-0001372'
p1076
aS'HAT-128-0001401'
p1077
aS'HAT-128-0002796'
p1078
aS'HAT-128-0003813'
p1079
aS'HAT-128-0003954'
p1080
aS'HAT-128-0004077'
p1081
aS'HAT-128-0004156'
p1082
aS'HAT-128-0005988'
p1083
aS'HAT-128-0006063'
p1084
aS'HAT-128-0006981'
p1085
aS'HAT-128-0009823'
p1086
aS'HAT-128-0018837'
p1087
aS'HAT-128-0031439'
p1088
aS'HAT-129-0000006'
p1089
aS'HAT-129-0000014'
p1090
aS'HAT-129-0000031'
p1091
aS'HAT-129-0000081'
p1092
aS'HAT-129-0000095'
p1093
aS'HAT-129-0000121'
p1094
aS'HAT-129-0000125'
p1095
aS'HAT-129-0000261'
p1096
aS'HAT-129-0000557'
p1097
aS'HAT-129-0001126'
p1098
aS'HAT-129-0001291'
p1099
aS'HAT-129-0001338'
p1100
aS'HAT-129-0002445'
p1101
aS'HAT-129-0003064'
p1102
aS'HAT-129-0004392'
p1103
aS'HAT-129-0004894'
p1104
aS'HAT-129-0009448'
p1105
aS'HAT-129-0011382'
p1106
aS'HAT-130-0000010'
p1107
aS'HAT-130-0001091'
p1108
aS'HAT-130-0001327'
p1109
aS'HAT-130-0002132'
p1110
aS'HAT-130-0011272'
p1111
aS'HAT-130-0022553'
p1112
aS'HAT-130-0252976'
p1113
aS'HAT-131-0000016'
p1114
aS'HAT-131-0000383'
p1115
aS'HAT-131-0000727'
p1116
aS'HAT-131-0001574'
p1117
aS'HAT-131-0002677'
p1118
aS'HAT-131-0066010'
p1119
aS'HAT-132-0000006'
p1120
aS'HAT-132-0000010'
p1121
aS'HAT-132-0000018'
p1122
aS'HAT-132-0000063'
p1123
aS'HAT-132-0000069'
p1124
aS'HAT-132-0000088'
p1125
aS'HAT-132-0000094'
p1126
aS'HAT-132-0000127'
p1127
aS'HAT-132-0000213'
p1128
aS'HAT-132-0000229'
p1129
aS'HAT-132-0000297'
p1130
aS'HAT-132-0000506'
p1131
aS'HAT-132-0000603'
p1132
aS'HAT-132-0000616'
p1133
aS'HAT-132-0000658'
p1134
aS'HAT-132-0000835'
p1135
aS'HAT-132-0000836'
p1136
aS'HAT-132-0000861'
p1137
aS'HAT-132-0001061'
p1138
aS'HAT-132-0001507'
p1139
aS'HAT-132-0001706'
p1140
aS'HAT-132-0002029'
p1141
aS'HAT-132-0002336'
p1142
aS'HAT-132-0002570'
p1143
aS'HAT-132-0002609'
p1144
aS'HAT-132-0002658'
p1145
aS'HAT-132-0008493'
p1146
aS'HAT-132-0009514'
p1147
aS'HAT-132-0010357'
p1148
aS'HAT-132-0016457'
p1149
aS'HAT-132-0017024'
p1150
aS'HAT-132-0025581'
p1151
aS'HAT-132-0028404'
p1152
aS'HAT-132-0031574'
p1153
aS'HAT-132-0035136'
p1154
aS'HAT-133-0000008'
p1155
aS'HAT-133-0000042'
p1156
aS'HAT-133-0000068'
p1157
aS'HAT-133-0000107'
p1158
aS'HAT-133-0000127'
p1159
aS'HAT-133-0000209'
p1160
aS'HAT-133-0000220'
p1161
aS'HAT-133-0000279'
p1162
aS'HAT-133-0000303'
p1163
aS'HAT-133-0000443'
p1164
aS'HAT-133-0000642'
p1165
aS'HAT-133-0000742'
p1166
aS'HAT-133-0000828'
p1167
aS'HAT-133-0000908'
p1168
aS'HAT-133-0001390'
p1169
aS'HAT-133-0002699'
p1170
aS'HAT-133-0008764'
p1171
aS'HAT-133-0010468'
p1172
aS'HAT-133-0010921'
p1173
aS'HAT-133-0013208'
p1174
aS'HAT-133-0017613'
p1175
aS'HAT-133-0019781'
p1176
aS'HAT-133-0022856'
p1177
aS'HAT-133-0025595'
p1178
aS'HAT-134-0000009'
p1179
aS'HAT-134-0000031'
p1180
aS'HAT-134-0000048'
p1181
aS'HAT-134-0000169'
p1182
aS'HAT-134-0000239'
p1183
aS'HAT-134-0000666'
p1184
aS'HAT-134-0002891'
p1185
aS'HAT-134-0006145'
p1186
aS'HAT-134-0010200'
p1187
aS'HAT-134-0010619'
p1188
aS'HAT-135-0000009'
p1189
aS'HAT-135-0000405'
p1190
aS'HAT-135-0000452'
p1191
aS'HAT-135-0001326'
p1192
aS'HAT-135-0002070'
p1193
aS'HAT-135-0007139'
p1194
aS'HAT-135-0007451'
p1195
aS'HAT-136-0000266'
p1196
aS'HAT-136-0000304'
p1197
aS'HAT-136-0000341'
p1198
aS'HAT-136-0000454'
p1199
aS'HAT-136-0000471'
p1200
aS'HAT-136-0000496'
p1201
aS'HAT-136-0000497'
p1202
aS'HAT-136-0001052'
p1203
aS'HAT-137-0000004'
p1204
aS'HAT-137-0000636'
p1205
aS'HAT-137-0001207'
p1206
aS'HAT-138-0000034'
p1207
aS'HAT-138-0000059'
p1208
aS'HAT-138-0000138'
p1209
aS'HAT-138-0000688'
p1210
aS'HAT-138-0001026'
p1211
aS'HAT-138-0001172'
p1212
aS'HAT-138-0001680'
p1213
aS'HAT-138-0003034'
p1214
aS'HAT-138-0004151'
p1215
aS'HAT-138-0008102'
p1216
aS'HAT-139-0000227'
p1217
aS'HAT-139-0000441'
p1218
aS'HAT-139-0005570'
p1219
aS'HAT-140-0000019'
p1220
aS'HAT-140-0000106'
p1221
aS'HAT-140-0000246'
p1222
aS'HAT-140-0002189'
p1223
aS'HAT-141-0000002'
p1224
aS'HAT-141-0000030'
p1225
aS'HAT-141-0000117'
p1226
aS'HAT-141-0000663'
p1227
aS'HAT-141-0000772'
p1228
aS'HAT-141-0000794'
p1229
aS'HAT-141-0000974'
p1230
aS'HAT-141-0002549'
p1231
aS'HAT-141-0003004'
p1232
aS'HAT-141-0004887'
p1233
aS'HAT-141-0005528'
p1234
aS'HAT-141-0005566'
p1235
aS'HAT-141-0005842'
p1236
aS'HAT-142-0000001'
p1237
aS'HAT-142-0000003'
p1238
aS'HAT-142-0000007'
p1239
aS'HAT-142-0000012'
p1240
aS'HAT-142-0000056'
p1241
aS'HAT-142-0000084'
p1242
aS'HAT-142-0000103'
p1243
aS'HAT-142-0000498'
p1244
aS'HAT-142-0002599'
p1245
aS'HAT-142-0004019'
p1246
aS'HAT-142-0004412'
p1247
aS'HAT-143-0000001'
p1248
aS'HAT-143-0000002'
p1249
aS'HAT-143-0000003'
p1250
aS'HAT-143-0000004'
p1251
aS'HAT-143-0000006'
p1252
aS'HAT-143-0000011'
p1253
aS'HAT-143-0000020'
p1254
aS'HAT-143-0000027'
p1255
aS'HAT-143-0000414'
p1256
aS'HAT-143-0001024'
p1257
aS'HAT-143-0002021'
p1258
aS'HAT-144-0000001'
p1259
aS'HAT-144-0000002'
p1260
aS'HAT-144-0000003'
p1261
aS'HAT-144-0000004'
p1262
aS'HAT-144-0000006'
p1263
aS'HAT-144-0000024'
p1264
aS'HAT-144-0000026'
p1265
aS'HAT-144-0000044'
p1266
aS'HAT-144-0000053'
p1267
aS'HAT-144-0000066'
p1268
aS'HAT-144-0000085'
p1269
aS'HAT-144-0000192'
p1270
aS'HAT-144-0000199'
p1271
aS'HAT-144-0000282'
p1272
aS'HAT-144-0000299'
p1273
aS'HAT-144-0001027'
p1274
aS'HAT-144-0001398'
p1275
aS'HAT-145-0000002'
p1276
aS'HAT-145-0000003'
p1277
aS'HAT-145-0000029'
p1278
aS'HAT-145-0000429'
p1279
aS'HAT-145-0000507'
p1280
aS'HAT-145-0000536'
p1281
aS'HAT-145-0001216'
p1282
aS'HAT-145-0001736'
p1283
aS'HAT-145-0002177'
p1284
aS'HAT-145-0003106'
p1285
aS'HAT-145-0004010'
p1286
aS'HAT-145-0004516'
p1287
aS'HAT-146-0000001'
p1288
aS'HAT-146-0000028'
p1289
aS'HAT-146-0000085'
p1290
aS'HAT-146-0000173'
p1291
aS'HAT-146-0000374'
p1292
aS'HAT-146-0000409'
p1293
aS'HAT-146-0000646'
p1294
aS'HAT-146-0000669'
p1295
aS'HAT-146-0000695'
p1296
aS'HAT-146-0000698'
p1297
aS'HAT-146-0000711'
p1298
aS'HAT-146-0000877'
p1299
aS'HAT-146-0000958'
p1300
aS'HAT-146-0001046'
p1301
aS'HAT-146-0002876'
p1302
aS'HAT-146-0002902'
p1303
aS'HAT-146-0003560'
p1304
aS'HAT-146-0003716'
p1305
aS'HAT-146-0004836'
p1306
aS'HAT-147-0000012'
p1307
aS'HAT-147-0000053'
p1308
aS'HAT-147-0000108'
p1309
aS'HAT-147-0000123'
p1310
aS'HAT-147-0000190'
p1311
aS'HAT-147-0000286'
p1312
aS'HAT-147-0000416'
p1313
aS'HAT-147-0001800'
p1314
aS'HAT-147-0001851'
p1315
aS'HAT-147-0003864'
p1316
aS'HAT-147-0006073'
p1317
aS'HAT-147-0008064'
p1318
aS'HAT-148-0000162'
p1319
aS'HAT-148-0000206'
p1320
aS'HAT-148-0000331'
p1321
aS'HAT-148-0000490'
p1322
aS'HAT-148-0000552'
p1323
aS'HAT-148-0000570'
p1324
aS'HAT-148-0000884'
p1325
aS'HAT-148-0001219'
p1326
aS'HAT-148-0001340'
p1327
aS'HAT-148-0001591'
p1328
aS'HAT-148-0001596'
p1329
aS'HAT-148-0001668'
p1330
aS'HAT-148-0001945'
p1331
aS'HAT-148-0002169'
p1332
aS'HAT-148-0002188'
p1333
aS'HAT-148-0002318'
p1334
aS'HAT-148-0002702'
p1335
aS'HAT-148-0002744'
p1336
aS'HAT-148-0003175'
p1337
aS'HAT-148-0003217'
p1338
aS'HAT-148-0004935'
p1339
aS'HAT-148-0005152'
p1340
aS'HAT-149-0000001'
p1341
aS'HAT-149-0000004'
p1342
aS'HAT-149-0000009'
p1343
aS'HAT-149-0000271'
p1344
aS'HAT-149-0000299'
p1345
aS'HAT-149-0000629'
p1346
aS'HAT-149-0000696'
p1347
aS'HAT-149-0000759'
p1348
aS'HAT-149-0000895'
p1349
aS'HAT-149-0001139'
p1350
aS'HAT-149-0001513'
p1351
aS'HAT-149-0001816'
p1352
aS'HAT-149-0001830'
p1353
aS'HAT-149-0002304'
p1354
aS'HAT-149-0002338'
p1355
aS'HAT-149-0002536'
p1356
aS'HAT-149-0002685'
p1357
aS'HAT-149-0005723'
p1358
aS'HAT-149-0007035'
p1359
aS'HAT-149-0008201'
p1360
aS'HAT-149-0010524'
p1361
aS'HAT-150-0000001'
p1362
aS'HAT-150-0000003'
p1363
aS'HAT-150-0000023'
p1364
aS'HAT-150-0000029'
p1365
aS'HAT-150-0000031'
p1366
aS'HAT-150-0000039'
p1367
aS'HAT-150-0000070'
p1368
aS'HAT-150-0000092'
p1369
aS'HAT-150-0000156'
p1370
aS'HAT-150-0000235'
p1371
aS'HAT-150-0000295'
p1372
aS'HAT-150-0000387'
p1373
aS'HAT-150-0000504'
p1374
aS'HAT-150-0000661'
p1375
aS'HAT-150-0000707'
p1376
aS'HAT-150-0001448'
p1377
aS'HAT-150-0001912'
p1378
aS'HAT-150-0002752'
p1379
aS'HAT-150-0003415'
p1380
aS'HAT-150-0003807'
p1381
aS'HAT-150-0004857'
p1382
aS'HAT-150-0005368'
p1383
aS'HAT-150-0006473'
p1384
aS'HAT-150-0007533'
p1385
aS'HAT-150-0007581'
p1386
aS'HAT-150-0011387'
p1387
aS'HAT-150-0096348'
p1388
aS'HAT-151-0000090'
p1389
aS'HAT-151-0000091'
p1390
aS'HAT-151-0000093'
p1391
aS'HAT-151-0000168'
p1392
aS'HAT-151-0000349'
p1393
aS'HAT-151-0000808'
p1394
aS'HAT-151-0000816'
p1395
aS'HAT-151-0000898'
p1396
aS'HAT-151-0000899'
p1397
aS'HAT-151-0000914'
p1398
aS'HAT-151-0001089'
p1399
aS'HAT-151-0001149'
p1400
aS'HAT-151-0001570'
p1401
aS'HAT-151-0002099'
p1402
aS'HAT-151-0002993'
p1403
aS'HAT-151-0004188'
p1404
aS'HAT-151-0004627'
p1405
aS'HAT-151-0005258'
p1406
aS'HAT-151-0005484'
p1407
aS'HAT-151-0005674'
p1408
aS'HAT-151-0005744'
p1409
aS'HAT-151-0006376'
p1410
aS'HAT-151-0006534'
p1411
aS'HAT-151-0007873'
p1412
aS'HAT-151-0009232'
p1413
aS'HAT-151-0010463'
p1414
aS'HAT-151-0012955'
p1415
aS'HAT-151-0013333'
p1416
aS'HAT-151-0013350'
p1417
aS'HAT-151-0013735'
p1418
aS'HAT-151-0013885'
p1419
aS'HAT-151-0019828'
p1420
aS'HAT-152-0000008'
p1421
aS'HAT-152-0000014'
p1422
aS'HAT-152-0000035'
p1423
aS'HAT-152-0000050'
p1424
aS'HAT-152-0000080'
p1425
aS'HAT-152-0000311'
p1426
aS'HAT-152-0000363'
p1427
aS'HAT-152-0000389'
p1428
aS'HAT-152-0000560'
p1429
aS'HAT-152-0000605'
p1430
aS'HAT-152-0000742'
p1431
aS'HAT-152-0000895'
p1432
aS'HAT-152-0000939'
p1433
aS'HAT-152-0001093'
p1434
aS'HAT-152-0001353'
p1435
aS'HAT-152-0001781'
p1436
aS'HAT-152-0001810'
p1437
aS'HAT-152-0001929'
p1438
aS'HAT-152-0002534'
p1439
aS'HAT-152-0002773'
p1440
aS'HAT-152-0003845'
p1441
aS'HAT-152-0004018'
p1442
aS'HAT-152-0004118'
p1443
aS'HAT-152-0004719'
p1444
aS'HAT-152-0006389'
p1445
aS'HAT-152-0007681'
p1446
aS'HAT-152-0007743'
p1447
aS'HAT-152-0010264'
p1448
aS'HAT-152-0014025'
p1449
aS'HAT-153-0000001'
p1450
aS'HAT-153-0000008'
p1451
aS'HAT-153-0000442'
p1452
aS'HAT-153-0000576'
p1453
aS'HAT-153-0000863'
p1454
aS'HAT-153-0000879'
p1455
aS'HAT-153-0001048'
p1456
aS'HAT-153-0001049'
p1457
aS'HAT-153-0001092'
p1458
aS'HAT-153-0001221'
p1459
aS'HAT-153-0001754'
p1460
aS'HAT-153-0001971'
p1461
aS'HAT-153-0002135'
p1462
aS'HAT-153-0003091'
p1463
aS'HAT-153-0004769'
p1464
aS'HAT-153-0004789'
p1465
aS'HAT-153-0007624'
p1466
aS'HAT-153-0008017'
p1467
aS'HAT-153-0008616'
p1468
aS'HAT-153-0008734'
p1469
aS'HAT-153-0008949'
p1470
aS'HAT-153-0012405'
p1471
aS'HAT-153-0014745'
p1472
aS'HAT-153-0015954'
p1473
aS'HAT-153-0018098'
p1474
aS'HAT-154-0000088'
p1475
aS'HAT-154-0000119'
p1476
aS'HAT-154-0000156'
p1477
aS'HAT-154-0000208'
p1478
aS'HAT-154-0000943'
p1479
aS'HAT-154-0001052'
p1480
aS'HAT-154-0001539'
p1481
aS'HAT-154-0002420'
p1482
aS'HAT-154-0002903'
p1483
aS'HAT-154-0005204'
p1484
aS'HAT-154-0005221'
p1485
aS'HAT-154-0017385'
p1486
aS'HAT-154-0020674'
p1487
aS'HAT-154-0021409'
p1488
aS'HAT-154-0030847'
p1489
aS'HAT-154-0083603'
p1490
aS'HAT-154-0465931'
p1491
aS'HAT-155-0000001'
p1492
aS'HAT-155-0000002'
p1493
aS'HAT-155-0000004'
p1494
aS'HAT-155-0000007'
p1495
aS'HAT-155-0000052'
p1496
aS'HAT-155-0000055'
p1497
aS'HAT-155-0000068'
p1498
aS'HAT-155-0000140'
p1499
aS'HAT-155-0000199'
p1500
aS'HAT-155-0000209'
p1501
aS'HAT-155-0000219'
p1502
aS'HAT-155-0000242'
p1503
aS'HAT-155-0000267'
p1504
aS'HAT-155-0000293'
p1505
aS'HAT-155-0000333'
p1506
aS'HAT-155-0000343'
p1507
aS'HAT-155-0000370'
p1508
aS'HAT-155-0000410'
p1509
aS'HAT-155-0000558'
p1510
aS'HAT-155-0000604'
p1511
aS'HAT-155-0000684'
p1512
aS'HAT-155-0000742'
p1513
aS'HAT-155-0000896'
p1514
aS'HAT-155-0000927'
p1515
aS'HAT-155-0001016'
p1516
aS'HAT-155-0001099'
p1517
aS'HAT-155-0001239'
p1518
aS'HAT-155-0001572'
p1519
aS'HAT-155-0001693'
p1520
aS'HAT-155-0001721'
p1521
aS'HAT-155-0001815'
p1522
aS'HAT-155-0001839'
p1523
aS'HAT-155-0001853'
p1524
aS'HAT-155-0002087'
p1525
aS'HAT-155-0002274'
p1526
aS'HAT-155-0002518'
p1527
aS'HAT-155-0002527'
p1528
aS'HAT-155-0002955'
p1529
aS'HAT-155-0004079'
p1530
aS'HAT-155-0004271'
p1531
aS'HAT-155-0005063'
p1532
aS'HAT-155-0005179'
p1533
aS'HAT-155-0006034'
p1534
aS'HAT-155-0006928'
p1535
aS'HAT-155-0006938'
p1536
aS'HAT-155-0007139'
p1537
aS'HAT-155-0007310'
p1538
aS'HAT-155-0007539'
p1539
aS'HAT-155-0007988'
p1540
aS'HAT-155-0008081'
p1541
aS'HAT-155-0009403'
p1542
aS'HAT-155-0011411'
p1543
aS'HAT-155-0024091'
p1544
aS'HAT-155-0029646'
p1545
aS'HAT-155-0029788'
p1546
aS'HAT-155-0039425'
p1547
aS'HAT-155-0043240'
p1548
aS'HAT-155-0045449'
p1549
aS'HAT-155-0048687'
p1550
aS'HAT-155-0051173'
p1551
aS'HAT-155-0075346'
p1552
aS'HAT-155-0082512'
p1553
aS'HAT-155-0271278'
p1554
aS'HAT-155-0335135'
p1555
aS'HAT-155-0446580'
p1556
aS'HAT-156-0000110'
p1557
aS'HAT-156-0000296'
p1558
aS'HAT-156-0000357'
p1559
aS'HAT-156-0000374'
p1560
aS'HAT-156-0001148'
p1561
aS'HAT-156-0001271'
p1562
aS'HAT-156-0003180'
p1563
aS'HAT-156-0007692'
p1564
aS'HAT-156-0907337'
p1565
aS'HAT-158-0000214'
p1566
aS'HAT-158-0000221'
p1567
aS'HAT-158-0000239'
p1568
aS'HAT-158-0000245'
p1569
aS'HAT-158-0000361'
p1570
aS'HAT-158-0000515'
p1571
aS'HAT-158-0001821'
p1572
aS'HAT-158-0003013'
p1573
aS'HAT-158-0007982'
p1574
aS'HAT-158-0011803'
p1575
aS'HAT-158-0020965'
p1576
aS'HAT-158-0028156'
p1577
aS'HAT-158-0064783'
p1578
aS'HAT-158-0073897'
p1579
aS'HAT-158-0075953'
p1580
aS'HAT-158-0096311'
p1581
aS'HAT-158-0097467'
p1582
aS'HAT-158-0640449'
p1583
aS'HAT-159-0000010'
p1584
aS'HAT-159-0000039'
p1585
aS'HAT-159-0000060'
p1586
aS'HAT-159-0000062'
p1587
aS'HAT-159-0000069'
p1588
aS'HAT-159-0000085'
p1589
aS'HAT-159-0000111'
p1590
aS'HAT-159-0000160'
p1591
aS'HAT-159-0000200'
p1592
aS'HAT-159-0000242'
p1593
aS'HAT-159-0000249'
p1594
aS'HAT-159-0000250'
p1595
aS'HAT-159-0000259'
p1596
aS'HAT-159-0000311'
p1597
aS'HAT-159-0000327'
p1598
aS'HAT-159-0000356'
p1599
aS'HAT-159-0000372'
p1600
aS'HAT-159-0000406'
p1601
aS'HAT-159-0000408'
p1602
aS'HAT-159-0000555'
p1603
aS'HAT-159-0000579'
p1604
aS'HAT-159-0000601'
p1605
aS'HAT-159-0000623'
p1606
aS'HAT-159-0000640'
p1607
aS'HAT-159-0000647'
p1608
aS'HAT-159-0000668'
p1609
aS'HAT-159-0000797'
p1610
aS'HAT-159-0000850'
p1611
aS'HAT-159-0000897'
p1612
aS'HAT-159-0001047'
p1613
aS'HAT-159-0001144'
p1614
aS'HAT-159-0001460'
p1615
aS'HAT-159-0001630'
p1616
aS'HAT-159-0001631'
p1617
aS'HAT-159-0001720'
p1618
aS'HAT-159-0002064'
p1619
aS'HAT-159-0002430'
p1620
aS'HAT-159-0002468'
p1621
aS'HAT-159-0002840'
p1622
aS'HAT-159-0003610'
p1623
aS'HAT-159-0003632'
p1624
aS'HAT-159-0004031'
p1625
aS'HAT-159-0004838'
p1626
aS'HAT-159-0005485'
p1627
aS'HAT-159-0005643'
p1628
aS'HAT-159-0006008'
p1629
aS'HAT-159-0006235'
p1630
aS'HAT-159-0008416'
p1631
aS'HAT-159-0009687'
p1632
aS'HAT-159-0009852'
p1633
aS'HAT-159-0010118'
p1634
aS'HAT-159-0010651'
p1635
aS'HAT-159-0011095'
p1636
aS'HAT-159-0011385'
p1637
aS'HAT-159-0012673'
p1638
aS'HAT-159-0017133'
p1639
aS'HAT-159-0017215'
p1640
aS'HAT-159-0017734'
p1641
aS'HAT-159-0018713'
p1642
aS'HAT-159-0020752'
p1643
aS'HAT-159-0026999'
p1644
aS'HAT-159-0029303'
p1645
aS'HAT-159-0046163'
p1646
aS'HAT-159-0054127'
p1647
aS'HAT-159-0054884'
p1648
aS'HAT-159-0066753'
p1649
aS'HAT-159-0067743'
p1650
aS'HAT-159-0069268'
p1651
aS'HAT-159-0070761'
p1652
aS'HAT-159-0075131'
p1653
aS'HAT-159-0077240'
p1654
aS'HAT-159-0079622'
p1655
aS'HAT-159-0271012'
p1656
aS'HAT-159-0391077'
p1657
aS'HAT-159-0846144'
p1658
aS'HAT-160-0000005'
p1659
aS'HAT-160-0000008'
p1660
aS'HAT-160-0000021'
p1661
aS'HAT-160-0000105'
p1662
aS'HAT-160-0000125'
p1663
aS'HAT-160-0000145'
p1664
aS'HAT-160-0000155'
p1665
aS'HAT-160-0000177'
p1666
aS'HAT-160-0000208'
p1667
aS'HAT-160-0000237'
p1668
aS'HAT-160-0000242'
p1669
aS'HAT-160-0000252'
p1670
aS'HAT-160-0000351'
p1671
aS'HAT-160-0000369'
p1672
aS'HAT-160-0000715'
p1673
aS'HAT-160-0000970'
p1674
aS'HAT-160-0001020'
p1675
aS'HAT-160-0001119'
p1676
aS'HAT-160-0001225'
p1677
aS'HAT-160-0001235'
p1678
aS'HAT-160-0001348'
p1679
aS'HAT-160-0001411'
p1680
aS'HAT-160-0001495'
p1681
aS'HAT-160-0001981'
p1682
aS'HAT-160-0002198'
p1683
aS'HAT-160-0002471'
p1684
aS'HAT-160-0003183'
p1685
aS'HAT-160-0003429'
p1686
aS'HAT-160-0004651'
p1687
aS'HAT-160-0005670'
p1688
aS'HAT-160-0008511'
p1689
aS'HAT-160-0009151'
p1690
aS'HAT-160-0010203'
p1691
aS'HAT-160-0010755'
p1692
aS'HAT-160-0012719'
p1693
aS'HAT-160-0014799'
p1694
aS'HAT-160-0016995'
p1695
aS'HAT-160-0018029'
p1696
aS'HAT-160-0020053'
p1697
aS'HAT-160-0020780'
p1698
aS'HAT-160-0022414'
p1699
aS'HAT-160-0023064'
p1700
aS'HAT-160-0024128'
p1701
aS'HAT-160-0027082'
p1702
aS'HAT-160-0027985'
p1703
aS'HAT-160-0546854'
p1704
aS'HAT-161-0000008'
p1705
aS'HAT-161-0000010'
p1706
aS'HAT-161-0000040'
p1707
aS'HAT-161-0000049'
p1708
aS'HAT-161-0000061'
p1709
aS'HAT-161-0000074'
p1710
aS'HAT-161-0000075'
p1711
aS'HAT-161-0000094'
p1712
aS'HAT-161-0000114'
p1713
aS'HAT-161-0000128'
p1714
aS'HAT-161-0000172'
p1715
aS'HAT-161-0000178'
p1716
aS'HAT-161-0000199'
p1717
aS'HAT-161-0000204'
p1718
aS'HAT-161-0000217'
p1719
aS'HAT-161-0000221'
p1720
aS'HAT-161-0000236'
p1721
aS'HAT-161-0000267'
p1722
aS'HAT-161-0000311'
p1723
aS'HAT-161-0000316'
p1724
aS'HAT-161-0000340'
p1725
aS'HAT-161-0000347'
p1726
aS'HAT-161-0000380'
p1727
aS'HAT-161-0000389'
p1728
aS'HAT-161-0000399'
p1729
aS'HAT-161-0000426'
p1730
aS'HAT-161-0000442'
p1731
aS'HAT-161-0000464'
p1732
aS'HAT-161-0000503'
p1733
aS'HAT-161-0000513'
p1734
aS'HAT-161-0000559'
p1735
aS'HAT-161-0000572'
p1736
aS'HAT-161-0000730'
p1737
aS'HAT-161-0000745'
p1738
aS'HAT-161-0000802'
p1739
aS'HAT-161-0000856'
p1740
aS'HAT-161-0000908'
p1741
aS'HAT-161-0000931'
p1742
aS'HAT-161-0001023'
p1743
aS'HAT-161-0001269'
p1744
aS'HAT-161-0001322'
p1745
aS'HAT-161-0001363'
p1746
aS'HAT-161-0001396'
p1747
aS'HAT-161-0001426'
p1748
aS'HAT-161-0001509'
p1749
aS'HAT-161-0001603'
p1750
aS'HAT-161-0001604'
p1751
aS'HAT-161-0001606'
p1752
aS'HAT-161-0001609'
p1753
aS'HAT-161-0001679'
p1754
aS'HAT-161-0001688'
p1755
aS'HAT-161-0001740'
p1756
aS'HAT-161-0001850'
p1757
aS'HAT-161-0001929'
p1758
aS'HAT-161-0002095'
p1759
aS'HAT-161-0002322'
p1760
aS'HAT-161-0002547'
p1761
aS'HAT-161-0002583'
p1762
aS'HAT-161-0002781'
p1763
aS'HAT-161-0002794'
p1764
aS'HAT-161-0002843'
p1765
aS'HAT-161-0003868'
p1766
aS'HAT-161-0003946'
p1767
aS'HAT-161-0004007'
p1768
aS'HAT-161-0004429'
p1769
aS'HAT-161-0004541'
p1770
aS'HAT-161-0004683'
p1771
aS'HAT-161-0005774'
p1772
aS'HAT-161-0006544'
p1773
aS'HAT-161-0006803'
p1774
aS'HAT-161-0007136'
p1775
aS'HAT-161-0007447'
p1776
aS'HAT-161-0008505'
p1777
aS'HAT-161-0008593'
p1778
aS'HAT-161-0008976'
p1779
aS'HAT-161-0009025'
p1780
aS'HAT-161-0009862'
p1781
aS'HAT-161-0012420'
p1782
aS'HAT-161-0013144'
p1783
aS'HAT-161-0013455'
p1784
aS'HAT-161-0015508'
p1785
aS'HAT-161-0016662'
p1786
aS'HAT-161-0017358'
p1787
aS'HAT-161-0020286'
p1788
aS'HAT-161-0028884'
p1789
aS'HAT-161-0218162'
p1790
aS'HAT-162-0000001'
p1791
aS'HAT-162-0000033'
p1792
aS'HAT-162-0000048'
p1793
aS'HAT-162-0000186'
p1794
aS'HAT-162-0000326'
p1795
aS'HAT-162-0000386'
p1796
aS'HAT-162-0000558'
p1797
aS'HAT-162-0000560'
p1798
aS'HAT-162-0000921'
p1799
aS'HAT-162-0001112'
p1800
aS'HAT-162-0001622'
p1801
aS'HAT-162-0001734'
p1802
aS'HAT-162-0002750'
p1803
aS'HAT-162-0003089'
p1804
aS'HAT-162-0003163'
p1805
aS'HAT-162-0008154'
p1806
aS'HAT-163-0000001'
p1807
aS'HAT-163-0000004'
p1808
aS'HAT-163-0000015'
p1809
aS'HAT-163-0000024'
p1810
aS'HAT-163-0000065'
p1811
aS'HAT-163-0000072'
p1812
aS'HAT-163-0000080'
p1813
aS'HAT-163-0000295'
p1814
aS'HAT-163-0000359'
p1815
aS'HAT-163-0000638'
p1816
aS'HAT-163-0001130'
p1817
aS'HAT-163-0001236'
p1818
aS'HAT-163-0002399'
p1819
aS'HAT-163-0003580'
p1820
aS'HAT-163-0003860'
p1821
aS'HAT-163-0004649'
p1822
aS'HAT-163-0007743'
p1823
aS'HAT-163-0008051'
p1824
aS'HAT-163-0013053'
p1825
aS'HAT-163-0019565'
p1826
aS'HAT-163-0020053'
p1827
aS'HAT-163-0025102'
p1828
aS'HAT-164-0000002'
p1829
aS'HAT-164-0000003'
p1830
aS'HAT-164-0000004'
p1831
aS'HAT-164-0000010'
p1832
aS'HAT-164-0000026'
p1833
aS'HAT-164-0000029'
p1834
aS'HAT-164-0000039'
p1835
aS'HAT-164-0000080'
p1836
aS'HAT-164-0000131'
p1837
aS'HAT-164-0000433'
p1838
aS'HAT-164-0000531'
p1839
aS'HAT-164-0001114'
p1840
aS'HAT-164-0001763'
p1841
aS'HAT-164-0001809'
p1842
aS'HAT-164-0001838'
p1843
aS'HAT-164-0002243'
p1844
aS'HAT-164-0002392'
p1845
aS'HAT-164-0003095'
p1846
aS'HAT-164-0004542'
p1847
aS'HAT-164-0004672'
p1848
aS'HAT-164-0007394'
p1849
aS'HAT-164-0007852'
p1850
aS'HAT-164-0008097'
p1851
aS'HAT-164-0008291'
p1852
aS'HAT-164-0012324'
p1853
aS'HAT-164-0013373'
p1854
aS'HAT-164-0014053'
p1855
aS'HAT-164-0014817'
p1856
aS'HAT-164-0015028'
p1857
aS'HAT-164-0021461'
p1858
aS'HAT-165-0000002'
p1859
aS'HAT-165-0000003'
p1860
aS'HAT-165-0000004'
p1861
aS'HAT-165-0000006'
p1862
aS'HAT-165-0000008'
p1863
aS'HAT-165-0000016'
p1864
aS'HAT-165-0000021'
p1865
aS'HAT-165-0000027'
p1866
aS'HAT-165-0000032'
p1867
aS'HAT-165-0000039'
p1868
aS'HAT-165-0000091'
p1869
aS'HAT-165-0000160'
p1870
aS'HAT-165-0000207'
p1871
aS'HAT-165-0000354'
p1872
aS'HAT-165-0000435'
p1873
aS'HAT-165-0000667'
p1874
aS'HAT-165-0001108'
p1875
aS'HAT-165-0001154'
p1876
aS'HAT-165-0001270'
p1877
aS'HAT-165-0001544'
p1878
aS'HAT-165-0001948'
p1879
aS'HAT-165-0005021'
p1880
aS'HAT-165-0005649'
p1881
aS'HAT-165-0005727'
p1882
aS'HAT-165-0006169'
p1883
aS'HAT-165-0008727'
p1884
aS'HAT-165-0010562'
p1885
aS'HAT-165-0014635'
p1886
aS'HAT-165-0015416'
p1887
aS'HAT-165-0015950'
p1888
aS'HAT-165-0016187'
p1889
aS'HAT-165-0016411'
p1890
aS'HAT-165-0017443'
p1891
aS'HAT-165-0022239'
p1892
aS'HAT-166-0000024'
p1893
aS'HAT-166-0000029'
p1894
aS'HAT-166-0000037'
p1895
aS'HAT-166-0000058'
p1896
aS'HAT-166-0000070'
p1897
aS'HAT-166-0000214'
p1898
aS'HAT-166-0000225'
p1899
aS'HAT-166-0000226'
p1900
aS'HAT-166-0000264'
p1901
aS'HAT-166-0000292'
p1902
aS'HAT-166-0000295'
p1903
aS'HAT-166-0000420'
p1904
aS'HAT-166-0000663'
p1905
aS'HAT-166-0000830'
p1906
aS'HAT-166-0001096'
p1907
aS'HAT-166-0001139'
p1908
aS'HAT-166-0001171'
p1909
aS'HAT-166-0001231'
p1910
aS'HAT-166-0001475'
p1911
aS'HAT-166-0001791'
p1912
aS'HAT-166-0002040'
p1913
aS'HAT-166-0002161'
p1914
aS'HAT-166-0002884'
p1915
aS'HAT-166-0003265'
p1916
aS'HAT-166-0004804'
p1917
aS'HAT-166-0005111'
p1918
aS'HAT-166-0005265'
p1919
aS'HAT-166-0005608'
p1920
aS'HAT-166-0005647'
p1921
aS'HAT-166-0007189'
p1922
aS'HAT-166-0009777'
p1923
aS'HAT-166-0009953'
p1924
aS'HAT-166-0010498'
p1925
aS'HAT-166-0011039'
p1926
aS'HAT-166-0011914'
p1927
aS'HAT-166-0014464'
p1928
aS'HAT-166-0014500'
p1929
aS'HAT-166-0014883'
p1930
aS'HAT-166-0015358'
p1931
aS'HAT-166-0017012'
p1932
aS'HAT-166-0036645'
p1933
aS'HAT-167-0000003'
p1934
aS'HAT-167-0000004'
p1935
aS'HAT-167-0000005'
p1936
aS'HAT-167-0000111'
p1937
aS'HAT-167-0000145'
p1938
aS'HAT-167-0000160'
p1939
aS'HAT-167-0000165'
p1940
aS'HAT-167-0000167'
p1941
aS'HAT-167-0000190'
p1942
aS'HAT-167-0000212'
p1943
aS'HAT-167-0000256'
p1944
aS'HAT-167-0000277'
p1945
aS'HAT-167-0000291'
p1946
aS'HAT-167-0000389'
p1947
aS'HAT-167-0000449'
p1948
aS'HAT-167-0000588'
p1949
aS'HAT-167-0000713'
p1950
aS'HAT-167-0000741'
p1951
aS'HAT-167-0000905'
p1952
aS'HAT-167-0001067'
p1953
aS'HAT-167-0001273'
p1954
aS'HAT-167-0001294'
p1955
aS'HAT-167-0001368'
p1956
aS'HAT-167-0001689'
p1957
aS'HAT-167-0001922'
p1958
aS'HAT-167-0002319'
p1959
aS'HAT-167-0002724'
p1960
aS'HAT-167-0003013'
p1961
aS'HAT-167-0003393'
p1962
aS'HAT-167-0004256'
p1963
aS'HAT-167-0004476'
p1964
aS'HAT-167-0009822'
p1965
aS'HAT-167-0011107'
p1966
aS'HAT-167-0011478'
p1967
aS'HAT-167-0012195'
p1968
aS'HAT-167-0013410'
p1969
aS'HAT-167-0014731'
p1970
aS'HAT-167-0016948'
p1971
aS'HAT-167-0017128'
p1972
aS'HAT-167-0022492'
p1973
aS'HAT-167-0023570'
p1974
aS'HAT-167-0025662'
p1975
aS'HAT-167-0026178'
p1976
aS'HAT-168-0000015'
p1977
aS'HAT-168-0000041'
p1978
aS'HAT-168-0000141'
p1979
aS'HAT-168-0000212'
p1980
aS'HAT-168-0000304'
p1981
aS'HAT-168-0000642'
p1982
aS'HAT-168-0000733'
p1983
aS'HAT-168-0001097'
p1984
aS'HAT-168-0002617'
p1985
aS'HAT-168-0003007'
p1986
aS'HAT-168-0004177'
p1987
aS'HAT-168-0007036'
p1988
aS'HAT-168-0007856'
p1989
aS'HAT-168-0009342'
p1990
aS'HAT-168-0010164'
p1991
aS'HAT-168-0015374'
p1992
aS'HAT-168-0022252'
p1993
aS'HAT-168-0024124'
p1994
aS'HAT-169-0000009'
p1995
aS'HAT-169-0000021'
p1996
aS'HAT-169-0000092'
p1997
aS'HAT-169-0000115'
p1998
aS'HAT-169-0000138'
p1999
aS'HAT-169-0000167'
p2000
aS'HAT-169-0000406'
p2001
aS'HAT-169-0000493'
p2002
aS'HAT-169-0000511'
p2003
aS'HAT-169-0000621'
p2004
aS'HAT-169-0000682'
p2005
aS'HAT-169-0000699'
p2006
aS'HAT-169-0000841'
p2007
aS'HAT-169-0001656'
p2008
aS'HAT-169-0001858'
p2009
aS'HAT-169-0002375'
p2010
aS'HAT-169-0003203'
p2011
aS'HAT-169-0003847'
p2012
aS'HAT-169-0004296'
p2013
aS'HAT-169-0004567'
p2014
aS'HAT-169-0004927'
p2015
aS'HAT-169-0005974'
p2016
aS'HAT-169-0006398'
p2017
aS'HAT-169-0008889'
p2018
aS'HAT-169-0033728'
p2019
aS'HAT-169-0351791'
p2020
aS'HAT-170-0000076'
p2021
aS'HAT-170-0000153'
p2022
aS'HAT-170-0000215'
p2023
aS'HAT-170-0000263'
p2024
aS'HAT-170-0000417'
p2025
aS'HAT-170-0000556'
p2026
aS'HAT-170-0000784'
p2027
aS'HAT-170-0000882'
p2028
aS'HAT-170-0001025'
p2029
aS'HAT-170-0001535'
p2030
aS'HAT-170-0001613'
p2031
aS'HAT-170-0001625'
p2032
aS'HAT-170-0001938'
p2033
aS'HAT-170-0001944'
p2034
aS'HAT-170-0002004'
p2035
aS'HAT-170-0005853'
p2036
aS'HAT-170-0024371'
p2037
aS'HAT-170-0049700'
p2038
aS'HAT-171-0000076'
p2039
aS'HAT-171-0000275'
p2040
aS'HAT-171-0000308'
p2041
aS'HAT-171-0000427'
p2042
aS'HAT-171-0000480'
p2043
aS'HAT-171-0000516'
p2044
aS'HAT-171-0000533'
p2045
aS'HAT-171-0000585'
p2046
aS'HAT-171-0000908'
p2047
aS'HAT-171-0001579'
p2048
aS'HAT-171-0004409'
p2049
aS'HAT-172-0000053'
p2050
aS'HAT-172-0000077'
p2051
aS'HAT-172-0000080'
p2052
aS'HAT-172-0000094'
p2053
aS'HAT-172-0000385'
p2054
aS'HAT-172-0001929'
p2055
aS'HAT-172-0002357'
p2056
aS'HAT-172-0005294'
p2057
aS'HAT-172-0058993'
p2058
aS'HAT-172-0072921'
p2059
aS'HAT-172-0154081'
p2060
aS'HAT-173-0000034'
p2061
aS'HAT-173-0000079'
p2062
aS'HAT-173-0000113'
p2063
aS'HAT-173-0000151'
p2064
aS'HAT-173-0000176'
p2065
aS'HAT-173-0000294'
p2066
aS'HAT-173-0000454'
p2067
aS'HAT-173-0000601'
p2068
aS'HAT-173-0000795'
p2069
aS'HAT-173-0000882'
p2070
aS'HAT-173-0000901'
p2071
aS'HAT-173-0000933'
p2072
aS'HAT-173-0001072'
p2073
aS'HAT-173-0001150'
p2074
aS'HAT-173-0001269'
p2075
aS'HAT-173-0001304'
p2076
aS'HAT-173-0002041'
p2077
aS'HAT-173-0002349'
p2078
aS'HAT-173-0002499'
p2079
aS'HAT-173-0003535'
p2080
aS'HAT-173-0005203'
p2081
aS'HAT-173-0009215'
p2082
aS'HAT-173-0018151'
p2083
aS'HAT-173-0057505'
p2084
aS'HAT-174-0000007'
p2085
aS'HAT-174-0000061'
p2086
aS'HAT-174-0000083'
p2087
aS'HAT-174-0000215'
p2088
aS'HAT-174-0000492'
p2089
aS'HAT-174-0002153'
p2090
aS'HAT-174-0003594'
p2091
aS'HAT-174-0041611'
p2092
aS'HAT-175-0000010'
p2093
aS'HAT-175-0000055'
p2094
aS'HAT-175-0000097'
p2095
aS'HAT-175-0000149'
p2096
aS'HAT-175-0002271'
p2097
aS'HAT-175-0003017'
p2098
aS'HAT-175-0014501'
p2099
aS'HAT-176-0000037'
p2100
aS'HAT-176-0000124'
p2101
aS'HAT-176-0000132'
p2102
aS'HAT-176-0000263'
p2103
aS'HAT-176-0000864'
p2104
aS'HAT-176-0001512'
p2105
aS'HAT-176-0004036'
p2106
aS'HAT-176-0015065'
p2107
aS'HAT-176-0019608'
p2108
aS'HAT-177-0000009'
p2109
aS'HAT-177-0000027'
p2110
aS'HAT-177-0000043'
p2111
aS'HAT-177-0000209'
p2112
aS'HAT-177-0000281'
p2113
aS'HAT-177-0000401'
p2114
aS'HAT-177-0001821'
p2115
aS'HAT-177-0002464'
p2116
aS'HAT-178-0000001'
p2117
aS'HAT-178-0000014'
p2118
aS'HAT-178-0000028'
p2119
aS'HAT-178-0000031'
p2120
aS'HAT-178-0000042'
p2121
aS'HAT-178-0000087'
p2122
aS'HAT-178-0000125'
p2123
aS'HAT-178-0000436'
p2124
aS'HAT-178-0001155'
p2125
aS'HAT-178-0001302'
p2126
aS'HAT-178-0001320'
p2127
aS'HAT-178-0001394'
p2128
aS'HAT-178-0002045'
p2129
aS'HAT-178-0002155'
p2130
aS'HAT-178-0003489'
p2131
aS'HAT-178-0003698'
p2132
aS'HAT-178-0006183'
p2133
aS'HAT-178-0011260'
p2134
aS'HAT-180-0000002'
p2135
aS'HAT-180-0000003'
p2136
aS'HAT-180-0000006'
p2137
aS'HAT-180-0000009'
p2138
aS'HAT-180-0000014'
p2139
aS'HAT-180-0000024'
p2140
aS'HAT-180-0000112'
p2141
aS'HAT-180-0000594'
p2142
aS'HAT-180-0001149'
p2143
aS'HAT-180-0003860'
p2144
aS'HAT-181-0000002'
p2145
aS'HAT-181-0000006'
p2146
aS'HAT-181-0000077'
p2147
aS'HAT-182-0000085'
p2148
aS'HAT-182-0000130'
p2149
aS'HAT-182-0000696'
p2150
aS'HAT-182-0001849'
p2151
aS'HAT-183-0000004'
p2152
aS'HAT-183-0000020'
p2153
aS'HAT-183-0000214'
p2154
aS'HAT-183-0000364'
p2155
aS'HAT-183-0000955'
p2156
aS'HAT-183-0000972'
p2157
aS'HAT-183-0001224'
p2158
aS'HAT-184-0000051'
p2159
aS'HAT-184-0000063'
p2160
aS'HAT-184-0000251'
p2161
aS'HAT-184-0000358'
p2162
aS'HAT-184-0000410'
p2163
aS'HAT-184-0000550'
p2164
aS'HAT-184-0000922'
p2165
aS'HAT-184-0003968'
p2166
aS'HAT-185-0000001'
p2167
aS'HAT-185-0000625'
p2168
aS'HAT-185-0000771'
p2169
aS'HAT-185-0001213'
p2170
aS'HAT-185-0001222'
p2171
aS'HAT-185-0001604'
p2172
aS'HAT-185-0002164'
p2173
aS'HAT-185-0004933'
p2174
aS'HAT-186-0000001'
p2175
aS'HAT-186-0000003'
p2176
aS'HAT-186-0000008'
p2177
aS'HAT-186-0000030'
p2178
aS'HAT-186-0000034'
p2179
aS'HAT-186-0000088'
p2180
aS'HAT-186-0000123'
p2181
aS'HAT-186-0000130'
p2182
aS'HAT-186-0000157'
p2183
aS'HAT-186-0000277'
p2184
aS'HAT-186-0000370'
p2185
aS'HAT-186-0000492'
p2186
aS'HAT-186-0000533'
p2187
aS'HAT-186-0000794'
p2188
aS'HAT-186-0000997'
p2189
aS'HAT-186-0001240'
p2190
aS'HAT-186-0001790'
p2191
aS'HAT-186-0001972'
p2192
aS'HAT-186-0001999'
p2193
aS'HAT-186-0003267'
p2194
aS'HAT-186-0003528'
p2195
aS'HAT-186-0004407'
p2196
aS'HAT-187-0000016'
p2197
aS'HAT-187-0000017'
p2198
aS'HAT-187-0000018'
p2199
aS'HAT-187-0000044'
p2200
aS'HAT-187-0000120'
p2201
aS'HAT-187-0000534'
p2202
aS'HAT-187-0000872'
p2203
aS'HAT-187-0000918'
p2204
aS'HAT-187-0001845'
p2205
aS'HAT-187-0002390'
p2206
aS'HAT-188-0000127'
p2207
aS'HAT-188-0000286'
p2208
aS'HAT-188-0000371'
p2209
aS'HAT-188-0000394'
p2210
aS'HAT-188-0000443'
p2211
aS'HAT-188-0000576'
p2212
aS'HAT-188-0000729'
p2213
aS'HAT-188-0001131'
p2214
aS'HAT-188-0001169'
p2215
aS'HAT-188-0001202'
p2216
aS'HAT-188-0002395'
p2217
aS'HAT-188-0002742'
p2218
aS'HAT-188-0002790'
p2219
aS'HAT-188-0004841'
p2220
aS'HAT-189-0000002'
p2221
aS'HAT-189-0000024'
p2222
aS'HAT-189-0000066'
p2223
aS'HAT-189-0000084'
p2224
aS'HAT-189-0000107'
p2225
aS'HAT-189-0000111'
p2226
aS'HAT-189-0000158'
p2227
aS'HAT-189-0000312'
p2228
aS'HAT-189-0000381'
p2229
aS'HAT-189-0000656'
p2230
aS'HAT-189-0000950'
p2231
aS'HAT-189-0001178'
p2232
aS'HAT-189-0001498'
p2233
aS'HAT-189-0002253'
p2234
aS'HAT-189-0002859'
p2235
aS'HAT-190-0000049'
p2236
aS'HAT-190-0000059'
p2237
aS'HAT-190-0000412'
p2238
aS'HAT-190-0000457'
p2239
aS'HAT-190-0000459'
p2240
aS'HAT-190-0000589'
p2241
aS'HAT-190-0000698'
p2242
aS'HAT-190-0000851'
p2243
aS'HAT-190-0000986'
p2244
aS'HAT-190-0001902'
p2245
aS'HAT-190-0002634'
p2246
aS'HAT-190-0002980'
p2247
aS'HAT-190-0003304'
p2248
aS'HAT-190-0003776'
p2249
aS'HAT-190-0005199'
p2250
aS'HAT-191-0000065'
p2251
aS'HAT-191-0000213'
p2252
aS'HAT-191-0000262'
p2253
aS'HAT-191-0000306'
p2254
aS'HAT-191-0000487'
p2255
aS'HAT-191-0000578'
p2256
aS'HAT-191-0000875'
p2257
aS'HAT-191-0001096'
p2258
aS'HAT-191-0001140'
p2259
aS'HAT-191-0001550'
p2260
aS'HAT-191-0001576'
p2261
aS'HAT-191-0003072'
p2262
aS'HAT-191-0003869'
p2263
aS'HAT-191-0006332'
p2264
aS'HAT-191-0006421'
p2265
aS'HAT-191-0007162'
p2266
aS'HAT-191-0008416'
p2267
aS'HAT-192-0000019'
p2268
aS'HAT-192-0000050'
p2269
aS'HAT-192-0000106'
p2270
aS'HAT-192-0000134'
p2271
aS'HAT-192-0000391'
p2272
aS'HAT-192-0000862'
p2273
aS'HAT-192-0001137'
p2274
aS'HAT-192-0001163'
p2275
aS'HAT-192-0001571'
p2276
aS'HAT-192-0002058'
p2277
aS'HAT-192-0002276'
p2278
aS'HAT-192-0002811'
p2279
aS'HAT-192-0003053'
p2280
aS'HAT-192-0004547'
p2281
aS'HAT-192-0005095'
p2282
aS'HAT-192-0006225'
p2283
aS'HAT-192-0006831'
p2284
aS'HAT-192-0007720'
p2285
aS'HAT-192-0008849'
p2286
aS'HAT-192-0008922'
p2287
aS'HAT-192-0009467'
p2288
aS'HAT-192-0078030'
p2289
aS'HAT-193-0000052'
p2290
aS'HAT-193-0000105'
p2291
aS'HAT-193-0000138'
p2292
aS'HAT-193-0000161'
p2293
aS'HAT-193-0000174'
p2294
aS'HAT-193-0000176'
p2295
aS'HAT-193-0000180'
p2296
aS'HAT-193-0000185'
p2297
aS'HAT-193-0000201'
p2298
aS'HAT-193-0000427'
p2299
aS'HAT-193-0000503'
p2300
aS'HAT-193-0000776'
p2301
aS'HAT-193-0000827'
p2302
aS'HAT-193-0000920'
p2303
aS'HAT-193-0001309'
p2304
aS'HAT-193-0001345'
p2305
aS'HAT-193-0002123'
p2306
aS'HAT-193-0002262'
p2307
aS'HAT-193-0003314'
p2308
aS'HAT-193-0003351'
p2309
aS'HAT-193-0003992'
p2310
aS'HAT-193-0004369'
p2311
aS'HAT-193-0005080'
p2312
aS'HAT-193-0005378'
p2313
aS'HAT-193-0006847'
p2314
aS'HAT-193-0007586'
p2315
aS'HAT-193-0009403'
p2316
aS'HAT-193-0009610'
p2317
aS'HAT-193-0009991'
p2318
aS'HAT-193-0011027'
p2319
aS'HAT-194-0000003'
p2320
aS'HAT-194-0000021'
p2321
aS'HAT-194-0000027'
p2322
aS'HAT-194-0000028'
p2323
aS'HAT-194-0000078'
p2324
aS'HAT-194-0000088'
p2325
aS'HAT-194-0000138'
p2326
aS'HAT-194-0000175'
p2327
aS'HAT-194-0000195'
p2328
aS'HAT-194-0000232'
p2329
aS'HAT-194-0000259'
p2330
aS'HAT-194-0000281'
p2331
aS'HAT-194-0000285'
p2332
aS'HAT-194-0000437'
p2333
aS'HAT-194-0000485'
p2334
aS'HAT-194-0000735'
p2335
aS'HAT-194-0000828'
p2336
aS'HAT-194-0000871'
p2337
aS'HAT-194-0000977'
p2338
aS'HAT-194-0001243'
p2339
aS'HAT-194-0001657'
p2340
aS'HAT-194-0002100'
p2341
aS'HAT-194-0002208'
p2342
aS'HAT-194-0003066'
p2343
aS'HAT-194-0003219'
p2344
aS'HAT-194-0004765'
p2345
aS'HAT-194-0006981'
p2346
aS'HAT-194-0007969'
p2347
aS'HAT-194-0009700'
p2348
aS'HAT-194-0011239'
p2349
aS'HAT-194-0011571'
p2350
aS'HAT-194-0013906'
p2351
aS'HAT-194-0014626'
p2352
aS'HAT-195-0000064'
p2353
aS'HAT-195-0000490'
p2354
aS'HAT-195-0000602'
p2355
aS'HAT-195-0000764'
p2356
aS'HAT-195-0000983'
p2357
aS'HAT-195-0001287'
p2358
aS'HAT-195-0001555'
p2359
aS'HAT-195-0002852'
p2360
aS'HAT-195-0004621'
p2361
aS'HAT-195-0004975'
p2362
aS'HAT-195-0008424'
p2363
aS'HAT-195-0010416'
p2364
aS'HAT-196-0000006'
p2365
aS'HAT-196-0000008'
p2366
aS'HAT-196-0000050'
p2367
aS'HAT-196-0000089'
p2368
aS'HAT-196-0000108'
p2369
aS'HAT-196-0000117'
p2370
aS'HAT-196-0000134'
p2371
aS'HAT-196-0000143'
p2372
aS'HAT-196-0000292'
p2373
aS'HAT-196-0000360'
p2374
aS'HAT-196-0000484'
p2375
aS'HAT-196-0000521'
p2376
aS'HAT-196-0000753'
p2377
aS'HAT-196-0000844'
p2378
aS'HAT-196-0001392'
p2379
aS'HAT-196-0001458'
p2380
aS'HAT-196-0001921'
p2381
aS'HAT-196-0002491'
p2382
aS'HAT-196-0002897'
p2383
aS'HAT-196-0003072'
p2384
aS'HAT-196-0003282'
p2385
aS'HAT-196-0004229'
p2386
aS'HAT-196-0004376'
p2387
aS'HAT-196-0004793'
p2388
aS'HAT-196-0006157'
p2389
aS'HAT-196-0007026'
p2390
aS'HAT-196-0007569'
p2391
aS'HAT-196-0008375'
p2392
aS'HAT-196-0013184'
p2393
aS'HAT-196-0015835'
p2394
aS'HAT-196-0020552'
p2395
aS'HAT-197-0000103'
p2396
aS'HAT-197-0000139'
p2397
aS'HAT-197-0000381'
p2398
aS'HAT-197-0000687'
p2399
aS'HAT-197-0000751'
p2400
aS'HAT-197-0002819'
p2401
aS'HAT-197-0004475'
p2402
aS'HAT-197-0005433'
p2403
aS'HAT-197-0005466'
p2404
aS'HAT-197-0012447'
p2405
aS'HAT-197-0016678'
p2406
aS'HAT-197-0034214'
p2407
aS'HAT-197-0038304'
p2408
aS'HAT-199-0001896'
p2409
aS'HAT-199-1738692'
p2410
aS'HAT-200-0005422'
p2411
aS'HAT-200-0013288'
p2412
aS'HAT-203-0000203'
p2413
aS'HAT-203-0000240'
p2414
aS'HAT-203-0000381'
p2415
aS'HAT-203-0000676'
p2416
aS'HAT-203-0000777'
p2417
aS'HAT-203-0000804'
p2418
aS'HAT-203-0001085'
p2419
aS'HAT-203-0003729'
p2420
aS'HAT-203-0003751'
p2421
aS'HAT-203-0021613'
p2422
aS'HAT-204-0000023'
p2423
aS'HAT-204-0000179'
p2424
aS'HAT-204-0000397'
p2425
aS'HAT-204-0000429'
p2426
aS'HAT-204-0000879'
p2427
aS'HAT-204-0001121'
p2428
aS'HAT-204-0001334'
p2429
aS'HAT-204-0001892'
p2430
aS'HAT-204-0002071'
p2431
aS'HAT-204-0006156'
p2432
aS'HAT-204-0008704'
p2433
aS'HAT-204-0011866'
p2434
aS'HAT-204-0018332'
p2435
aS'HAT-205-0000008'
p2436
aS'HAT-205-0000026'
p2437
aS'HAT-205-0000030'
p2438
aS'HAT-205-0000064'
p2439
aS'HAT-205-0000091'
p2440
aS'HAT-205-0000098'
p2441
aS'HAT-205-0000124'
p2442
aS'HAT-205-0000158'
p2443
aS'HAT-205-0000195'
p2444
aS'HAT-205-0000247'
p2445
aS'HAT-205-0000263'
p2446
aS'HAT-205-0000430'
p2447
aS'HAT-205-0000487'
p2448
aS'HAT-205-0000491'
p2449
aS'HAT-205-0000556'
p2450
aS'HAT-205-0000786'
p2451
aS'HAT-205-0000897'
p2452
aS'HAT-205-0001041'
p2453
aS'HAT-205-0001093'
p2454
aS'HAT-205-0001258'
p2455
aS'HAT-205-0001698'
p2456
aS'HAT-205-0001937'
p2457
aS'HAT-205-0002225'
p2458
aS'HAT-205-0004099'
p2459
aS'HAT-205-0004123'
p2460
aS'HAT-205-0006998'
p2461
aS'HAT-205-0007812'
p2462
aS'HAT-205-0009103'
p2463
aS'HAT-205-0009240'
p2464
aS'HAT-205-0010343'
p2465
aS'HAT-205-0011284'
p2466
aS'HAT-205-0013394'
p2467
aS'HAT-206-0000008'
p2468
aS'HAT-206-0000410'
p2469
aS'HAT-206-0001075'
p2470
aS'HAT-206-0002082'
p2471
aS'HAT-206-0002548'
p2472
aS'HAT-206-0003406'
p2473
aS'HAT-206-0003636'
p2474
aS'HAT-206-0003697'
p2475
aS'HAT-206-0004898'
p2476
aS'HAT-206-0005090'
p2477
aS'HAT-206-0006059'
p2478
aS'HAT-206-0006259'
p2479
aS'HAT-206-0006363'
p2480
aS'HAT-206-0007103'
p2481
aS'HAT-206-0008564'
p2482
aS'HAT-206-0012588'
p2483
aS'HAT-206-0013315'
p2484
aS'HAT-206-0014533'
p2485
aS'HAT-206-0015382'
p2486
aS'HAT-206-0015550'
p2487
aS'HAT-206-0023274'
p2488
aS'HAT-207-0000001'
p2489
aS'HAT-207-0000084'
p2490
aS'HAT-207-0000908'
p2491
aS'HAT-207-0003276'
p2492
aS'HAT-207-0007948'
p2493
aS'HAT-208-0000005'
p2494
aS'HAT-208-0000018'
p2495
aS'HAT-208-0000023'
p2496
aS'HAT-208-0000024'
p2497
aS'HAT-208-0000031'
p2498
aS'HAT-208-0000034'
p2499
aS'HAT-208-0000061'
p2500
aS'HAT-208-0000428'
p2501
aS'HAT-208-0000456'
p2502
aS'HAT-208-0000751'
p2503
aS'HAT-208-0000904'
p2504
aS'HAT-208-0001629'
p2505
aS'HAT-208-0002924'
p2506
aS'HAT-208-0004123'
p2507
aS'HAT-208-0004349'
p2508
aS'HAT-208-0005089'
p2509
aS'HAT-208-0005488'
p2510
aS'HAT-208-0007240'
p2511
aS'HAT-208-0008550'
p2512
aS'HAT-208-0009681'
p2513
aS'HAT-208-0014495'
p2514
aS'HAT-208-0043603'
p2515
aS'HAT-209-0000002'
p2516
aS'HAT-209-0000003'
p2517
aS'HAT-209-0000006'
p2518
aS'HAT-209-0000069'
p2519
aS'HAT-209-0000072'
p2520
aS'HAT-209-0000095'
p2521
aS'HAT-209-0000215'
p2522
aS'HAT-209-0000247'
p2523
aS'HAT-209-0000744'
p2524
aS'HAT-209-0000854'
p2525
aS'HAT-209-0000857'
p2526
aS'HAT-209-0001423'
p2527
aS'HAT-209-0001603'
p2528
aS'HAT-209-0001691'
p2529
aS'HAT-209-0002080'
p2530
aS'HAT-209-0002397'
p2531
aS'HAT-209-0002895'
p2532
aS'HAT-209-0002927'
p2533
aS'HAT-209-0003056'
p2534
aS'HAT-209-0003151'
p2535
aS'HAT-209-0003496'
p2536
aS'HAT-209-0005190'
p2537
aS'HAT-209-0005426'
p2538
aS'HAT-209-0006048'
p2539
aS'HAT-209-0007612'
p2540
aS'HAT-209-0008607'
p2541
aS'HAT-209-0009540'
p2542
aS'HAT-209-0010430'
p2543
aS'HAT-210-0000006'
p2544
aS'HAT-210-0000015'
p2545
aS'HAT-210-0000082'
p2546
aS'HAT-210-0000465'
p2547
aS'HAT-210-0000516'
p2548
aS'HAT-210-0000785'
p2549
aS'HAT-210-0000844'
p2550
aS'HAT-210-0000859'
p2551
aS'HAT-210-0000935'
p2552
aS'HAT-210-0001023'
p2553
aS'HAT-210-0001074'
p2554
aS'HAT-210-0001150'
p2555
aS'HAT-210-0001374'
p2556
aS'HAT-210-0001442'
p2557
aS'HAT-210-0001971'
p2558
aS'HAT-210-0003470'
p2559
aS'HAT-210-0003886'
p2560
aS'HAT-210-0004448'
p2561
aS'HAT-210-0006094'
p2562
aS'HAT-210-0008277'
p2563
aS'HAT-210-0008777'
p2564
aS'HAT-210-0009425'
p2565
aS'HAT-210-0009745'
p2566
aS'HAT-210-0009849'
p2567
aS'HAT-210-0011206'
p2568
aS'HAT-210-0011236'
p2569
aS'HAT-210-0011361'
p2570
aS'HAT-211-0000001'
p2571
aS'HAT-211-0000003'
p2572
aS'HAT-211-0000004'
p2573
aS'HAT-211-0000020'
p2574
aS'HAT-211-0000127'
p2575
aS'HAT-211-0000229'
p2576
aS'HAT-211-0000318'
p2577
aS'HAT-211-0000552'
p2578
aS'HAT-211-0000941'
p2579
aS'HAT-211-0001013'
p2580
aS'HAT-211-0001627'
p2581
aS'HAT-211-0001710'
p2582
aS'HAT-211-0002315'
p2583
aS'HAT-211-0002709'
p2584
aS'HAT-211-0002781'
p2585
aS'HAT-211-0004068'
p2586
aS'HAT-211-0005663'
p2587
aS'HAT-212-0000001'
p2588
aS'HAT-212-0000002'
p2589
aS'HAT-212-0000011'
p2590
aS'HAT-212-0000014'
p2591
aS'HAT-212-0000020'
p2592
aS'HAT-212-0000032'
p2593
aS'HAT-212-0000038'
p2594
aS'HAT-212-0000334'
p2595
aS'HAT-212-0000348'
p2596
aS'HAT-212-0000380'
p2597
aS'HAT-212-0000561'
p2598
aS'HAT-212-0000711'
p2599
aS'HAT-212-0001366'
p2600
aS'HAT-212-0001417'
p2601
aS'HAT-212-0001734'
p2602
aS'HAT-212-0002154'
p2603
aS'HAT-212-0002334'
p2604
aS'HAT-212-0002357'
p2605
aS'HAT-212-0006582'
p2606
aS'HAT-212-0008158'
p2607
aS'HAT-212-0010379'
p2608
aS'HAT-212-0012762'
p2609
aS'HAT-213-0000002'
p2610
aS'HAT-213-0000003'
p2611
aS'HAT-213-0000015'
p2612
aS'HAT-213-0000019'
p2613
aS'HAT-213-0000049'
p2614
aS'HAT-213-0000069'
p2615
aS'HAT-213-0000071'
p2616
aS'HAT-213-0000074'
p2617
aS'HAT-213-0000089'
p2618
aS'HAT-213-0000121'
p2619
aS'HAT-213-0000139'
p2620
aS'HAT-213-0000155'
p2621
aS'HAT-213-0000700'
p2622
aS'HAT-213-0000817'
p2623
aS'HAT-213-0001054'
p2624
aS'HAT-213-0001191'
p2625
aS'HAT-213-0001712'
p2626
aS'HAT-213-0002447'
p2627
aS'HAT-213-0002841'
p2628
aS'HAT-214-0000002'
p2629
aS'HAT-214-0000004'
p2630
aS'HAT-214-0000008'
p2631
aS'HAT-214-0000014'
p2632
aS'HAT-214-0000028'
p2633
aS'HAT-214-0000039'
p2634
aS'HAT-214-0000062'
p2635
aS'HAT-214-0000070'
p2636
aS'HAT-214-0000093'
p2637
aS'HAT-214-0000209'
p2638
aS'HAT-214-0000217'
p2639
aS'HAT-214-0000228'
p2640
aS'HAT-214-0000362'
p2641
aS'HAT-214-0000372'
p2642
aS'HAT-214-0000405'
p2643
aS'HAT-214-0000411'
p2644
aS'HAT-214-0000421'
p2645
aS'HAT-214-0000502'
p2646
aS'HAT-214-0000513'
p2647
aS'HAT-214-0000539'
p2648
aS'HAT-214-0000554'
p2649
aS'HAT-214-0000613'
p2650
aS'HAT-214-0000712'
p2651
aS'HAT-214-0000827'
p2652
aS'HAT-214-0000990'
p2653
aS'HAT-214-0001268'
p2654
aS'HAT-214-0001492'
p2655
aS'HAT-214-0001521'
p2656
aS'HAT-214-0001840'
p2657
aS'HAT-214-0002032'
p2658
aS'HAT-214-0002039'
p2659
aS'HAT-214-0002043'
p2660
aS'HAT-214-0002714'
p2661
aS'HAT-214-0002725'
p2662
aS'HAT-214-0003067'
p2663
aS'HAT-214-0003323'
p2664
aS'HAT-214-0003944'
p2665
aS'HAT-214-0004097'
p2666
aS'HAT-214-0004322'
p2667
aS'HAT-214-0004600'
p2668
aS'HAT-214-0004670'
p2669
aS'HAT-214-0005278'
p2670
aS'HAT-214-0005439'
p2671
aS'HAT-214-0005571'
p2672
aS'HAT-214-0007345'
p2673
aS'HAT-214-0007531'
p2674
aS'HAT-214-0007808'
p2675
aS'HAT-214-0008658'
p2676
aS'HAT-214-0009246'
p2677
aS'HAT-214-0009875'
p2678
aS'HAT-214-0010634'
p2679
aS'HAT-214-0011066'
p2680
aS'HAT-214-0011541'
p2681
aS'HAT-214-0011912'
p2682
aS'HAT-214-0012234'
p2683
aS'HAT-214-0012813'
p2684
aS'HAT-214-0013429'
p2685
aS'HAT-214-0013893'
p2686
aS'HAT-214-0013934'
p2687
aS'HAT-214-0014454'
p2688
aS'HAT-214-0018089'
p2689
aS'HAT-215-0000001'
p2690
aS'HAT-215-0000006'
p2691
aS'HAT-215-0000009'
p2692
aS'HAT-215-0000010'
p2693
aS'HAT-215-0000011'
p2694
aS'HAT-215-0000012'
p2695
aS'HAT-215-0000037'
p2696
aS'HAT-215-0000047'
p2697
aS'HAT-215-0000057'
p2698
aS'HAT-215-0000076'
p2699
aS'HAT-215-0000078'
p2700
aS'HAT-215-0000079'
p2701
aS'HAT-215-0000159'
p2702
aS'HAT-215-0000183'
p2703
aS'HAT-215-0000225'
p2704
aS'HAT-215-0000335'
p2705
aS'HAT-215-0000497'
p2706
aS'HAT-215-0000583'
p2707
aS'HAT-215-0000686'
p2708
aS'HAT-215-0000727'
p2709
aS'HAT-215-0000770'
p2710
aS'HAT-215-0000776'
p2711
aS'HAT-215-0000864'
p2712
aS'HAT-215-0000880'
p2713
aS'HAT-215-0001309'
p2714
aS'HAT-215-0001340'
p2715
aS'HAT-215-0001369'
p2716
aS'HAT-215-0001491'
p2717
aS'HAT-215-0001546'
p2718
aS'HAT-215-0001651'
p2719
aS'HAT-215-0001718'
p2720
aS'HAT-215-0001786'
p2721
aS'HAT-215-0001828'
p2722
aS'HAT-215-0001853'
p2723
aS'HAT-215-0001880'
p2724
aS'HAT-215-0001941'
p2725
aS'HAT-215-0002254'
p2726
aS'HAT-215-0002349'
p2727
aS'HAT-215-0002486'
p2728
aS'HAT-215-0002509'
p2729
aS'HAT-215-0002553'
p2730
aS'HAT-215-0002643'
p2731
aS'HAT-215-0002719'
p2732
aS'HAT-215-0003180'
p2733
aS'HAT-215-0003235'
p2734
aS'HAT-215-0003374'
p2735
aS'HAT-215-0003411'
p2736
aS'HAT-215-0003569'
p2737
aS'HAT-215-0003925'
p2738
aS'HAT-215-0003960'
p2739
aS'HAT-215-0004602'
p2740
aS'HAT-215-0004605'
p2741
aS'HAT-215-0004878'
p2742
aS'HAT-215-0005341'
p2743
aS'HAT-215-0005693'
p2744
aS'HAT-215-0006550'
p2745
aS'HAT-215-0006610'
p2746
aS'HAT-215-0008062'
p2747
aS'HAT-215-0008667'
p2748
aS'HAT-215-0008731'
p2749
aS'HAT-215-0009590'
p2750
aS'HAT-215-0009925'
p2751
aS'HAT-215-0010381'
p2752
aS'HAT-215-0011624'
p2753
aS'HAT-215-0012522'
p2754
aS'HAT-215-0012693'
p2755
aS'HAT-215-0013069'
p2756
aS'HAT-215-0014433'
p2757
aS'HAT-215-0016014'
p2758
aS'HAT-215-0028041'
p2759
aS'HAT-215-0029512'
p2760
aS'HAT-215-0036140'
p2761
aS'HAT-215-0235067'
p2762
aS'HAT-216-0000003'
p2763
aS'HAT-216-0000007'
p2764
aS'HAT-216-0000008'
p2765
aS'HAT-216-0000009'
p2766
aS'HAT-216-0000019'
p2767
aS'HAT-216-0000044'
p2768
aS'HAT-216-0000050'
p2769
aS'HAT-216-0000054'
p2770
aS'HAT-216-0000061'
p2771
aS'HAT-216-0000077'
p2772
aS'HAT-216-0000081'
p2773
aS'HAT-216-0000092'
p2774
aS'HAT-216-0000170'
p2775
aS'HAT-216-0000176'
p2776
aS'HAT-216-0000209'
p2777
aS'HAT-216-0000241'
p2778
aS'HAT-216-0000265'
p2779
aS'HAT-216-0000331'
p2780
aS'HAT-216-0000364'
p2781
aS'HAT-216-0000383'
p2782
aS'HAT-216-0000385'
p2783
aS'HAT-216-0000420'
p2784
aS'HAT-216-0000424'
p2785
aS'HAT-216-0000470'
p2786
aS'HAT-216-0000553'
p2787
aS'HAT-216-0000612'
p2788
aS'HAT-216-0001017'
p2789
aS'HAT-216-0001116'
p2790
aS'HAT-216-0001191'
p2791
aS'HAT-216-0001220'
p2792
aS'HAT-216-0001407'
p2793
aS'HAT-216-0001580'
p2794
aS'HAT-216-0001725'
p2795
aS'HAT-216-0001930'
p2796
aS'HAT-216-0002299'
p2797
aS'HAT-216-0002326'
p2798
aS'HAT-216-0002649'
p2799
aS'HAT-216-0002898'
p2800
aS'HAT-216-0004017'
p2801
aS'HAT-216-0004850'
p2802
aS'HAT-216-0004921'
p2803
aS'HAT-216-0005106'
p2804
aS'HAT-216-0005130'
p2805
aS'HAT-216-0006168'
p2806
aS'HAT-216-0006462'
p2807
aS'HAT-216-0006625'
p2808
aS'HAT-216-0007349'
p2809
aS'HAT-216-0007802'
p2810
aS'HAT-216-0008090'
p2811
aS'HAT-216-0010284'
p2812
aS'HAT-216-0010874'
p2813
aS'HAT-216-0011599'
p2814
aS'HAT-216-0012536'
p2815
aS'HAT-216-0012792'
p2816
aS'HAT-216-0016759'
p2817
aS'HAT-216-0024423'
p2818
aS'HAT-216-0028773'
p2819
aS'HAT-216-0034048'
p2820
aS'HAT-216-0049603'
p2821
aS'HAT-216-0050223'
p2822
aS'HAT-216-0507756'
p2823
aS'HAT-217-0000023'
p2824
aS'HAT-217-0000048'
p2825
aS'HAT-217-0000056'
p2826
aS'HAT-217-0000138'
p2827
aS'HAT-217-0000215'
p2828
aS'HAT-217-0000248'
p2829
aS'HAT-217-0000277'
p2830
aS'HAT-217-0000400'
p2831
aS'HAT-217-0000419'
p2832
aS'HAT-217-0000535'
p2833
aS'HAT-217-0000541'
p2834
aS'HAT-217-0000840'
p2835
aS'HAT-217-0000890'
p2836
aS'HAT-217-0001668'
p2837
aS'HAT-217-0002588'
p2838
aS'HAT-217-0002670'
p2839
aS'HAT-217-0003819'
p2840
aS'HAT-217-0004399'
p2841
aS'HAT-217-0007975'
p2842
aS'HAT-217-0008109'
p2843
aS'HAT-217-0010030'
p2844
aS'HAT-217-0013427'
p2845
aS'HAT-217-0052676'
p2846
aS'HAT-217-0445897'
p2847
aS'HAT-218-0000003'
p2848
aS'HAT-218-0000047'
p2849
aS'HAT-218-0000090'
p2850
aS'HAT-218-0000160'
p2851
aS'HAT-218-0000222'
p2852
aS'HAT-218-0000312'
p2853
aS'HAT-218-0000377'
p2854
aS'HAT-218-0000480'
p2855
aS'HAT-218-0000483'
p2856
aS'HAT-218-0000499'
p2857
aS'HAT-218-0000515'
p2858
aS'HAT-218-0001132'
p2859
aS'HAT-218-0003544'
p2860
aS'HAT-218-0007992'
p2861
aS'HAT-218-0011469'
p2862
aS'HAT-218-0013317'
p2863
aS'HAT-218-0020336'
p2864
aS'HAT-218-0029377'
p2865
aS'HAT-219-0000001'
p2866
aS'HAT-219-0000002'
p2867
aS'HAT-219-0000003'
p2868
aS'HAT-219-0000006'
p2869
aS'HAT-219-0000009'
p2870
aS'HAT-219-0000012'
p2871
aS'HAT-219-0000014'
p2872
aS'HAT-219-0000016'
p2873
aS'HAT-219-0000022'
p2874
aS'HAT-219-0000053'
p2875
aS'HAT-219-0000070'
p2876
aS'HAT-219-0000084'
p2877
aS'HAT-219-0000164'
p2878
aS'HAT-219-0000196'
p2879
aS'HAT-219-0000348'
p2880
aS'HAT-219-0000421'
p2881
aS'HAT-219-0001044'
p2882
aS'HAT-219-0001306'
p2883
aS'HAT-219-0001330'
p2884
aS'HAT-219-0001567'
p2885
aS'HAT-219-0001582'
p2886
aS'HAT-219-0001659'
p2887
aS'HAT-219-0001763'
p2888
aS'HAT-219-0001875'
p2889
aS'HAT-219-0002289'
p2890
aS'HAT-219-0002539'
p2891
aS'HAT-219-0002756'
p2892
aS'HAT-219-0003312'
p2893
aS'HAT-219-0005150'
p2894
aS'HAT-219-0005807'
p2895
aS'HAT-219-0026168'
p2896
aS'HAT-219-0303649'
p2897
aS'HAT-219-0576121'
p2898
aS'HAT-220-0000226'
p2899
aS'HAT-220-0000353'
p2900
aS'HAT-220-0000562'
p2901
aS'HAT-220-0000711'
p2902
aS'HAT-220-0001285'
p2903
aS'HAT-220-0001527'
p2904
aS'HAT-220-0001807'
p2905
aS'HAT-220-0001913'
p2906
aS'HAT-220-0006118'
p2907
aS'HAT-221-0000053'
p2908
aS'HAT-221-0000071'
p2909
aS'HAT-221-0000475'
p2910
aS'HAT-221-0001475'
p2911
aS'HAT-221-0001913'
p2912
aS'HAT-221-0002270'
p2913
aS'HAT-222-0000005'
p2914
aS'HAT-222-0000013'
p2915
aS'HAT-222-0000060'
p2916
aS'HAT-222-0000098'
p2917
aS'HAT-222-0000100'
p2918
aS'HAT-222-0000129'
p2919
aS'HAT-222-0000171'
p2920
aS'HAT-222-0000211'
p2921
aS'HAT-222-0000395'
p2922
aS'HAT-222-0001013'
p2923
aS'HAT-222-0001510'
p2924
aS'HAT-222-0001604'
p2925
aS'HAT-222-0015010'
p2926
aS'HAT-223-0000012'
p2927
aS'HAT-223-0000646'
p2928
aS'HAT-223-0003186'
p2929
aS'HAT-224-0000079'
p2930
aS'HAT-227-0000416'
p2931
aS'HAT-227-0001885'
p2932
aS'HAT-228-0000237'
p2933
aS'HAT-230-0000006'
p2934
aS'HAT-230-0000068'
p2935
aS'HAT-230-0000523'
p2936
aS'HAT-230-0003639'
p2937
aS'HAT-230-0003941'
p2938
aS'HAT-230-0006268'
p2939
aS'HAT-230-0007987'
p2940
aS'HAT-231-0000361'
p2941
aS'HAT-231-0000588'
p2942
aS'HAT-231-0001047'
p2943
aS'HAT-231-0001202'
p2944
aS'HAT-231-0001267'
p2945
aS'HAT-231-0002297'
p2946
aS'HAT-231-0002502'
p2947
aS'HAT-231-0003954'
p2948
aS'HAT-231-0004186'
p2949
aS'HAT-231-0006567'
p2950
aS'HAT-232-0000018'
p2951
aS'HAT-233-0000094'
p2952
aS'HAT-233-0000508'
p2953
aS'HAT-234-0000001'
p2954
aS'HAT-234-0000004'
p2955
aS'HAT-234-0000477'
p2956
aS'HAT-234-0000486'
p2957
aS'HAT-235-0000002'
p2958
aS'HAT-235-0000003'
p2959
aS'HAT-235-0000004'
p2960
aS'HAT-235-0000013'
p2961
aS'HAT-235-0000037'
p2962
aS'HAT-235-0000079'
p2963
aS'HAT-235-0000399'
p2964
aS'HAT-235-0000470'
p2965
aS'HAT-235-0000749'
p2966
aS'HAT-235-0001251'
p2967
aS'HAT-235-0001458'
p2968
aS'HAT-235-0001472'
p2969
aS'HAT-235-0001681'
p2970
aS'HAT-235-0004994'
p2971
aS'HAT-235-0005901'
p2972
aS'HAT-236-0000003'
p2973
aS'HAT-236-0000106'
p2974
aS'HAT-236-0000107'
p2975
aS'HAT-236-0000112'
p2976
aS'HAT-236-0000119'
p2977
aS'HAT-236-0000307'
p2978
aS'HAT-236-0000395'
p2979
aS'HAT-236-0000449'
p2980
aS'HAT-236-0001097'
p2981
aS'HAT-236-0001210'
p2982
aS'HAT-236-0001421'
p2983
aS'HAT-236-0004208'
p2984
aS'HAT-236-0004801'
p2985
aS'HAT-236-0008580'
p2986
aS'HAT-237-0000002'
p2987
aS'HAT-237-0000004'
p2988
aS'HAT-237-0000006'
p2989
aS'HAT-237-0000010'
p2990
aS'HAT-237-0000017'
p2991
aS'HAT-237-0000018'
p2992
aS'HAT-237-0000022'
p2993
aS'HAT-237-0000032'
p2994
aS'HAT-237-0000053'
p2995
aS'HAT-237-0000056'
p2996
aS'HAT-237-0000116'
p2997
aS'HAT-237-0000118'
p2998
aS'HAT-237-0000136'
p2999
aS'HAT-237-0000472'
p3000
aS'HAT-237-0000650'
p3001
aS'HAT-237-0000881'
p3002
aS'HAT-237-0001097'
p3003
aS'HAT-237-0001890'
p3004
aS'HAT-237-0002098'
p3005
aS'HAT-237-0002432'
p3006
aS'HAT-237-0002943'
p3007
aS'HAT-237-0003683'
p3008
aS'HAT-237-0005849'
p3009
aS'HAT-237-0008372'
p3010
aS'HAT-237-0010045'
p3011
aS'HAT-238-0000002'
p3012
aS'HAT-238-0000004'
p3013
aS'HAT-238-0000005'
p3014
aS'HAT-238-0000007'
p3015
aS'HAT-238-0000051'
p3016
aS'HAT-238-0000254'
p3017
aS'HAT-238-0000271'
p3018
aS'HAT-238-0000295'
p3019
aS'HAT-238-0000513'
p3020
aS'HAT-238-0000516'
p3021
aS'HAT-238-0000752'
p3022
aS'HAT-238-0000847'
p3023
aS'HAT-238-0001495'
p3024
aS'HAT-238-0001802'
p3025
aS'HAT-238-0002706'
p3026
aS'HAT-238-0003106'
p3027
aS'HAT-238-0003165'
p3028
aS'HAT-238-0003546'
p3029
aS'HAT-238-0004826'
p3030
aS'HAT-238-0008638'
p3031
aS'HAT-238-0009411'
p3032
aS'HAT-238-0010246'
p3033
aS'HAT-238-0011016'
p3034
aS'HAT-238-0012306'
p3035
aS'HAT-238-0012921'
p3036
aS'HAT-238-0013573'
p3037
aS'HAT-238-0015588'
p3038
aS'HAT-239-0000002'
p3039
aS'HAT-239-0000005'
p3040
aS'HAT-239-0000008'
p3041
aS'HAT-239-0000012'
p3042
aS'HAT-239-0000045'
p3043
aS'HAT-239-0000060'
p3044
aS'HAT-239-0000080'
p3045
aS'HAT-239-0000102'
p3046
aS'HAT-239-0000114'
p3047
aS'HAT-239-0000167'
p3048
aS'HAT-239-0000191'
p3049
aS'HAT-239-0000221'
p3050
aS'HAT-239-0000275'
p3051
aS'HAT-239-0000285'
p3052
aS'HAT-239-0000318'
p3053
aS'HAT-239-0000323'
p3054
aS'HAT-239-0000377'
p3055
aS'HAT-239-0000885'
p3056
aS'HAT-239-0001077'
p3057
aS'HAT-239-0001137'
p3058
aS'HAT-239-0001161'
p3059
aS'HAT-239-0001313'
p3060
aS'HAT-239-0001393'
p3061
aS'HAT-239-0001491'
p3062
aS'HAT-239-0002109'
p3063
aS'HAT-239-0002161'
p3064
aS'HAT-239-0002607'
p3065
aS'HAT-239-0003145'
p3066
aS'HAT-239-0003997'
p3067
aS'HAT-239-0004082'
p3068
aS'HAT-239-0005577'
p3069
aS'HAT-239-0006475'
p3070
aS'HAT-239-0006573'
p3071
aS'HAT-239-0008751'
p3072
aS'HAT-239-0010954'
p3073
aS'HAT-239-0011748'
p3074
aS'HAT-239-0014885'
p3075
aS'HAT-239-0017009'
p3076
aS'HAT-239-0017481'
p3077
aS'HAT-240-0000002'
p3078
aS'HAT-240-0000008'
p3079
aS'HAT-240-0000010'
p3080
aS'HAT-240-0000011'
p3081
aS'HAT-240-0000012'
p3082
aS'HAT-240-0000018'
p3083
aS'HAT-240-0000038'
p3084
aS'HAT-240-0000050'
p3085
aS'HAT-240-0000066'
p3086
aS'HAT-240-0000069'
p3087
aS'HAT-240-0000220'
p3088
aS'HAT-240-0000231'
p3089
aS'HAT-240-0000489'
p3090
aS'HAT-240-0000547'
p3091
aS'HAT-240-0000742'
p3092
aS'HAT-240-0000891'
p3093
aS'HAT-240-0001008'
p3094
aS'HAT-240-0001026'
p3095
aS'HAT-240-0001469'
p3096
aS'HAT-240-0001476'
p3097
aS'HAT-240-0001505'
p3098
aS'HAT-240-0002564'
p3099
aS'HAT-240-0002768'
p3100
aS'HAT-240-0003042'
p3101
aS'HAT-240-0004228'
p3102
aS'HAT-240-0004611'
p3103
aS'HAT-240-0007088'
p3104
aS'HAT-240-0007160'
p3105
aS'HAT-240-0007203'
p3106
aS'HAT-240-0008309'
p3107
aS'HAT-240-0008888'
p3108
aS'HAT-240-0009940'
p3109
aS'HAT-240-0013244'
p3110
aS'HAT-240-0021689'
p3111
aS'HAT-241-0000001'
p3112
aS'HAT-241-0000003'
p3113
aS'HAT-241-0000004'
p3114
aS'HAT-241-0000010'
p3115
aS'HAT-241-0000013'
p3116
aS'HAT-241-0000017'
p3117
aS'HAT-241-0000018'
p3118
aS'HAT-241-0000023'
p3119
aS'HAT-241-0000028'
p3120
aS'HAT-241-0000058'
p3121
aS'HAT-241-0000079'
p3122
aS'HAT-241-0000117'
p3123
aS'HAT-241-0000202'
p3124
aS'HAT-241-0000239'
p3125
aS'HAT-241-0000271'
p3126
aS'HAT-241-0000276'
p3127
aS'HAT-241-0000349'
p3128
aS'HAT-241-0000355'
p3129
aS'HAT-241-0000367'
p3130
aS'HAT-241-0000385'
p3131
aS'HAT-241-0000414'
p3132
aS'HAT-241-0000462'
p3133
aS'HAT-241-0000493'
p3134
aS'HAT-241-0000566'
p3135
aS'HAT-241-0000681'
p3136
aS'HAT-241-0000731'
p3137
aS'HAT-241-0000782'
p3138
aS'HAT-241-0000790'
p3139
aS'HAT-241-0000854'
p3140
aS'HAT-241-0000973'
p3141
aS'HAT-241-0001123'
p3142
aS'HAT-241-0001150'
p3143
aS'HAT-241-0001659'
p3144
aS'HAT-241-0001942'
p3145
aS'HAT-241-0002682'
p3146
aS'HAT-241-0003145'
p3147
aS'HAT-241-0003639'
p3148
aS'HAT-241-0003721'
p3149
aS'HAT-241-0006122'
p3150
aS'HAT-241-0006255'
p3151
aS'HAT-241-0006847'
p3152
aS'HAT-241-0007097'
p3153
aS'HAT-241-0008478'
p3154
aS'HAT-241-0008680'
p3155
aS'HAT-241-0008853'
p3156
aS'HAT-241-0010284'
p3157
aS'HAT-241-0013602'
p3158
aS'HAT-241-0014843'
p3159
aS'HAT-241-0020777'
p3160
aS'HAT-241-0022986'
p3161
aS'HAT-241-0024870'
p3162
aS'HAT-241-0064299'
p3163
aS'HAT-242-0000001'
p3164
aS'HAT-242-0000002'
p3165
aS'HAT-242-0000003'
p3166
aS'HAT-242-0000009'
p3167
aS'HAT-242-0000015'
p3168
aS'HAT-242-0000017'
p3169
aS'HAT-242-0000053'
p3170
aS'HAT-242-0000061'
p3171
aS'HAT-242-0000062'
p3172
aS'HAT-242-0000069'
p3173
aS'HAT-242-0000113'
p3174
aS'HAT-242-0000121'
p3175
aS'HAT-242-0000191'
p3176
aS'HAT-242-0000202'
p3177
aS'HAT-242-0000233'
p3178
aS'HAT-242-0000240'
p3179
aS'HAT-242-0000272'
p3180
aS'HAT-242-0000336'
p3181
aS'HAT-242-0000393'
p3182
aS'HAT-242-0000452'
p3183
aS'HAT-242-0000618'
p3184
aS'HAT-242-0000692'
p3185
aS'HAT-242-0000748'
p3186
aS'HAT-242-0000822'
p3187
aS'HAT-242-0000861'
p3188
aS'HAT-242-0000934'
p3189
aS'HAT-242-0001071'
p3190
aS'HAT-242-0001705'
p3191
aS'HAT-242-0001711'
p3192
aS'HAT-242-0002014'
p3193
aS'HAT-242-0002088'
p3194
aS'HAT-242-0002142'
p3195
aS'HAT-242-0002318'
p3196
aS'HAT-242-0002337'
p3197
aS'HAT-242-0002513'
p3198
aS'HAT-242-0002550'
p3199
aS'HAT-242-0003022'
p3200
aS'HAT-242-0003029'
p3201
aS'HAT-242-0004283'
p3202
aS'HAT-242-0004340'
p3203
aS'HAT-242-0004586'
p3204
aS'HAT-242-0005113'
p3205
aS'HAT-242-0005784'
p3206
aS'HAT-242-0005864'
p3207
aS'HAT-242-0006796'
p3208
aS'HAT-242-0007779'
p3209
aS'HAT-242-0007999'
p3210
aS'HAT-242-0009581'
p3211
aS'HAT-242-0009716'
p3212
aS'HAT-242-0010782'
p3213
aS'HAT-242-0011845'
p3214
aS'HAT-242-0012903'
p3215
aS'HAT-242-0015086'
p3216
aS'HAT-242-0016328'
p3217
aS'HAT-242-0017617'
p3218
aS'HAT-242-0025060'
p3219
aS'HAT-242-0026174'
p3220
aS'HAT-242-0034689'
p3221
aS'HAT-242-0035233'
p3222
aS'HAT-242-0037172'
p3223
aS'HAT-242-0038489'
p3224
aS'HAT-242-0041891'
p3225
aS'HAT-242-0042594'
p3226
aS'HAT-242-0053169'
p3227
aS'HAT-243-0000033'
p3228
aS'HAT-243-0000134'
p3229
aS'HAT-243-0000190'
p3230
aS'HAT-243-0000521'
p3231
aS'HAT-243-0000780'
p3232
aS'HAT-243-0000823'
p3233
aS'HAT-243-0001995'
p3234
aS'HAT-243-0002126'
p3235
aS'HAT-243-0002332'
p3236
aS'HAT-243-0004924'
p3237
aS'HAT-243-0021393'
p3238
aS'HAT-243-0022475'
p3239
aS'HAT-243-0077862'
p3240
aS'HAT-244-0000184'
p3241
aS'HAT-244-0019270'
p3242
aS'HAT-244-0027930'
p3243
aS'HAT-244-0040477'
p3244
aS'HAT-244-0046391'
p3245
aS'HAT-245-0000082'
p3246
aS'HAT-245-0000218'
p3247
aS'HAT-245-0000416'
p3248
aS'HAT-245-0000494'
p3249
aS'HAT-245-0000658'
p3250
aS'HAT-245-0001425'
p3251
aS'HAT-245-0001646'
p3252
aS'HAT-245-0001773'
p3253
aS'HAT-245-0002385'
p3254
aS'HAT-245-0002557'
p3255
aS'HAT-245-0002781'
p3256
aS'HAT-245-0003332'
p3257
aS'HAT-245-0003395'
p3258
aS'HAT-245-0010056'
p3259
aS'HAT-245-0015101'
p3260
aS'HAT-245-1421697'
p3261
aS'HAT-246-0000007'
p3262
aS'HAT-246-0000011'
p3263
aS'HAT-246-0000068'
p3264
aS'HAT-246-0000114'
p3265
aS'HAT-246-0000257'
p3266
aS'HAT-246-0000417'
p3267
aS'HAT-246-0000817'
p3268
aS'HAT-246-0002021'
p3269
aS'HAT-246-0002854'
p3270
aS'HAT-246-0003886'
p3271
aS'HAT-246-0009716'
p3272
aS'HAT-246-0012790'
p3273
aS'HAT-246-0013742'
p3274
aS'HAT-246-0015854'
p3275
aS'HAT-246-0017847'
p3276
aS'HAT-246-0020332'
p3277
aS'HAT-246-1266798'
p3278
aS'HAT-246-1267810'
p3279
aS'HAT-247-0000008'
p3280
aS'HAT-247-0000145'
p3281
aS'HAT-247-0000256'
p3282
aS'HAT-247-0000360'
p3283
aS'HAT-247-0019271'
p3284
aS'HAT-248-0000001'
p3285
aS'HAT-248-0000004'
p3286
aS'HAT-248-0000005'
p3287
aS'HAT-248-0000069'
p3288
aS'HAT-248-0000132'
p3289
aS'HAT-248-0000497'
p3290
aS'HAT-248-0001093'
p3291
aS'HAT-248-0001371'
p3292
aS'HAT-248-0001585'
p3293
aS'HAT-248-0002850'
p3294
aS'HAT-249-0000001'
p3295
aS'HAT-249-0000002'
p3296
aS'HAT-249-0000014'
p3297
aS'HAT-249-0000018'
p3298
aS'HAT-249-0000037'
p3299
aS'HAT-249-0000063'
p3300
aS'HAT-249-0000302'
p3301
aS'HAT-249-0001039'
p3302
aS'HAT-249-0001088'
p3303
aS'HAT-249-0001117'
p3304
aS'HAT-249-0006738'
p3305
aS'HAT-249-0007006'
p3306
aS'HAT-250-0000005'
p3307
aS'HAT-250-0000007'
p3308
aS'HAT-250-0000009'
p3309
aS'HAT-250-0000010'
p3310
aS'HAT-250-0000020'
p3311
aS'HAT-250-0000051'
p3312
aS'HAT-250-0000618'
p3313
aS'HAT-250-0001536'
p3314
aS'HAT-250-0001822'
p3315
aS'HAT-250-0002448'
p3316
aS'HAT-250-0009555'
p3317
aS'HAT-250-0012095'
p3318
aS'HAT-250-0012815'
p3319
aS'HAT-250-0014792'
p3320
aS'HAT-251-0000065'
p3321
aS'HAT-252-0000003'
p3322
aS'HAT-252-0000008'
p3323
aS'HAT-252-0000017'
p3324
aS'HAT-253-0000001'
p3325
aS'HAT-253-0000002'
p3326
aS'HAT-253-0000232'
p3327
aS'HAT-253-0000289'
p3328
aS'HAT-253-0000364'
p3329
aS'HAT-253-0012151'
p3330
aS'HAT-254-0000287'
p3331
aS'HAT-254-0003892'
p3332
aS'HAT-255-0000001'
p3333
aS'HAT-255-0000069'
p3334
aS'HAT-255-0000168'
p3335
aS'HAT-255-0000272'
p3336
aS'HAT-255-0000387'
p3337
aS'HAT-255-0000534'
p3338
aS'HAT-256-0000002'
p3339
aS'HAT-256-0000026'
p3340
aS'HAT-256-0004885'
p3341
aS'HAT-256-0005695'
p3342
aS'HAT-256-0011211'
p3343
aS'HAT-257-0000001'
p3344
aS'HAT-257-0000002'
p3345
aS'HAT-257-0000004'
p3346
aS'HAT-257-0000007'
p3347
aS'HAT-257-0000015'
p3348
aS'HAT-257-0000024'
p3349
aS'HAT-257-0000138'
p3350
aS'HAT-257-0000348'
p3351
aS'HAT-257-0003528'
p3352
aS'HAT-258-0000002'
p3353
aS'HAT-258-0000009'
p3354
aS'HAT-258-0000065'
p3355
aS'HAT-258-0000315'
p3356
aS'HAT-258-0000874'
p3357
aS'HAT-258-0001316'
p3358
aS'HAT-258-0001352'
p3359
aS'HAT-258-0002510'
p3360
aS'HAT-258-0003252'
p3361
aS'HAT-258-0003516'
p3362
aS'HAT-258-0007927'
p3363
aS'HAT-258-0009461'
p3364
aS'HAT-259-0000002'
p3365
aS'HAT-259-0000004'
p3366
aS'HAT-259-0000008'
p3367
aS'HAT-259-0000029'
p3368
aS'HAT-259-0000033'
p3369
aS'HAT-259-0000064'
p3370
aS'HAT-259-0000082'
p3371
aS'HAT-259-0000103'
p3372
aS'HAT-259-0000124'
p3373
aS'HAT-259-0000161'
p3374
aS'HAT-259-0000197'
p3375
aS'HAT-259-0000770'
p3376
aS'HAT-259-0000802'
p3377
aS'HAT-259-0000875'
p3378
aS'HAT-259-0000897'
p3379
aS'HAT-259-0000968'
p3380
aS'HAT-259-0001031'
p3381
aS'HAT-259-0001316'
p3382
aS'HAT-259-0001371'
p3383
aS'HAT-259-0001450'
p3384
aS'HAT-259-0001451'
p3385
aS'HAT-259-0001492'
p3386
aS'HAT-259-0001804'
p3387
aS'HAT-259-0001850'
p3388
aS'HAT-259-0002068'
p3389
aS'HAT-259-0002204'
p3390
aS'HAT-259-0002228'
p3391
aS'HAT-259-0002417'
p3392
aS'HAT-259-0002484'
p3393
aS'HAT-259-0002521'
p3394
aS'HAT-259-0002558'
p3395
aS'HAT-259-0002563'
p3396
aS'HAT-259-0002872'
p3397
aS'HAT-259-0003090'
p3398
aS'HAT-259-0003093'
p3399
aS'HAT-259-0003104'
p3400
aS'HAT-259-0003417'
p3401
aS'HAT-259-0003441'
p3402
aS'HAT-259-0003585'
p3403
aS'HAT-259-0004219'
p3404
aS'HAT-259-0004239'
p3405
aS'HAT-259-0004244'
p3406
aS'HAT-259-0004328'
p3407
aS'HAT-259-0004354'
p3408
aS'HAT-259-0004456'
p3409
aS'HAT-259-0005520'
p3410
aS'HAT-259-0005577'
p3411
aS'HAT-259-0005937'
p3412
aS'HAT-259-0006003'
p3413
aS'HAT-259-0006070'
p3414
aS'HAT-259-0006122'
p3415
aS'HAT-259-0006183'
p3416
aS'HAT-259-0006356'
p3417
aS'HAT-259-0006385'
p3418
aS'HAT-259-0006395'
p3419
aS'HAT-259-0006679'
p3420
aS'HAT-259-0006855'
p3421
aS'HAT-259-0006986'
p3422
aS'HAT-259-0007159'
p3423
aS'HAT-259-0007336'
p3424
aS'HAT-259-0007420'
p3425
aS'HAT-259-0007512'
p3426
aS'HAT-259-0007594'
p3427
aS'HAT-259-0007602'
p3428
aS'HAT-259-0007615'
p3429
aS'HAT-259-0007880'
p3430
aS'HAT-259-0008673'
p3431
aS'HAT-259-0008691'
p3432
aS'HAT-259-0008952'
p3433
aS'HAT-259-0009079'
p3434
aS'HAT-259-0009110'
p3435
aS'HAT-259-0009297'
p3436
aS'HAT-259-0009482'
p3437
aS'HAT-259-0009494'
p3438
aS'HAT-259-0009679'
p3439
aS'HAT-259-0009839'
p3440
aS'HAT-259-0009895'
p3441
aS'HAT-259-0010104'
p3442
aS'HAT-259-0010301'
p3443
aS'HAT-259-0010336'
p3444
aS'HAT-259-0010354'
p3445
aS'HAT-259-0010806'
p3446
aS'HAT-259-0010882'
p3447
aS'HAT-259-0010940'
p3448
aS'HAT-259-0011028'
p3449
aS'HAT-259-0011527'
p3450
aS'HAT-259-0011669'
p3451
aS'HAT-259-0011937'
p3452
aS'HAT-259-0012149'
p3453
aS'HAT-259-0012222'
p3454
aS'HAT-259-0012542'
p3455
aS'HAT-259-0012780'
p3456
aS'HAT-259-0013239'
p3457
aS'HAT-259-0013509'
p3458
aS'HAT-259-0013554'
p3459
aS'HAT-259-0013556'
p3460
aS'HAT-259-0013557'
p3461
aS'HAT-259-0013872'
p3462
aS'HAT-259-0014104'
p3463
aS'HAT-259-0014236'
p3464
aS'HAT-259-0014243'
p3465
aS'HAT-259-0014801'
p3466
aS'HAT-259-0015414'
p3467
aS'HAT-259-0036719'
p3468
aS'HAT-260-0000006'
p3469
aS'HAT-260-0000012'
p3470
aS'HAT-260-0000017'
p3471
aS'HAT-260-0000022'
p3472
aS'HAT-260-0000045'
p3473
aS'HAT-260-0000052'
p3474
aS'HAT-260-0000056'
p3475
aS'HAT-260-0000101'
p3476
aS'HAT-260-0000120'
p3477
aS'HAT-260-0000174'
p3478
aS'HAT-260-0000182'
p3479
aS'HAT-260-0000197'
p3480
aS'HAT-260-0000203'
p3481
aS'HAT-260-0000254'
p3482
aS'HAT-260-0000264'
p3483
aS'HAT-260-0000303'
p3484
aS'HAT-260-0000371'
p3485
aS'HAT-260-0000480'
p3486
aS'HAT-260-0000662'
p3487
aS'HAT-260-0000795'
p3488
aS'HAT-260-0000816'
p3489
aS'HAT-260-0000875'
p3490
aS'HAT-260-0000967'
p3491
aS'HAT-260-0001041'
p3492
aS'HAT-260-0001085'
p3493
aS'HAT-260-0001146'
p3494
aS'HAT-260-0001319'
p3495
aS'HAT-260-0001382'
p3496
aS'HAT-260-0001556'
p3497
aS'HAT-260-0001576'
p3498
aS'HAT-260-0001649'
p3499
aS'HAT-260-0001860'
p3500
aS'HAT-260-0001925'
p3501
aS'HAT-260-0001957'
p3502
aS'HAT-260-0002199'
p3503
aS'HAT-260-0002215'
p3504
aS'HAT-260-0002271'
p3505
aS'HAT-260-0002310'
p3506
aS'HAT-260-0002411'
p3507
aS'HAT-260-0002522'
p3508
aS'HAT-260-0002523'
p3509
aS'HAT-260-0002552'
p3510
aS'HAT-260-0002563'
p3511
aS'HAT-260-0002570'
p3512
aS'HAT-260-0002687'
p3513
aS'HAT-260-0002721'
p3514
aS'HAT-260-0002776'
p3515
aS'HAT-260-0002877'
p3516
aS'HAT-260-0003133'
p3517
aS'HAT-260-0003215'
p3518
aS'HAT-260-0003233'
p3519
aS'HAT-260-0003303'
p3520
aS'HAT-260-0003312'
p3521
aS'HAT-260-0003381'
p3522
aS'HAT-260-0003419'
p3523
aS'HAT-260-0003439'
p3524
aS'HAT-260-0003475'
p3525
aS'HAT-260-0003635'
p3526
aS'HAT-260-0003661'
p3527
aS'HAT-260-0003716'
p3528
aS'HAT-260-0003756'
p3529
aS'HAT-260-0003795'
p3530
aS'HAT-260-0003811'
p3531
aS'HAT-260-0003834'
p3532
aS'HAT-260-0003861'
p3533
aS'HAT-260-0003895'
p3534
aS'HAT-260-0004019'
p3535
aS'HAT-260-0004206'
p3536
aS'HAT-260-0004580'
p3537
aS'HAT-260-0004627'
p3538
aS'HAT-260-0004647'
p3539
aS'HAT-260-0004651'
p3540
aS'HAT-260-0004655'
p3541
aS'HAT-260-0004762'
p3542
aS'HAT-260-0004784'
p3543
aS'HAT-260-0004799'
p3544
aS'HAT-260-0004811'
p3545
aS'HAT-260-0004833'
p3546
aS'HAT-260-0004857'
p3547
aS'HAT-260-0004888'
p3548
aS'HAT-260-0005061'
p3549
aS'HAT-260-0005103'
p3550
aS'HAT-260-0005322'
p3551
aS'HAT-260-0005341'
p3552
aS'HAT-260-0005466'
p3553
aS'HAT-260-0005596'
p3554
aS'HAT-260-0005609'
p3555
aS'HAT-260-0005640'
p3556
aS'HAT-260-0005745'
p3557
aS'HAT-260-0005788'
p3558
aS'HAT-260-0005904'
p3559
aS'HAT-260-0006088'
p3560
aS'HAT-260-0006135'
p3561
aS'HAT-260-0006292'
p3562
aS'HAT-260-0006338'
p3563
aS'HAT-260-0006413'
p3564
aS'HAT-260-0006568'
p3565
aS'HAT-260-0006673'
p3566
aS'HAT-260-0006697'
p3567
aS'HAT-260-0006705'
p3568
aS'HAT-260-0006706'
p3569
aS'HAT-260-0006711'
p3570
aS'HAT-260-0006720'
p3571
aS'HAT-260-0006763'
p3572
aS'HAT-260-0006872'
p3573
aS'HAT-260-0007033'
p3574
aS'HAT-260-0007081'
p3575
aS'HAT-260-0007200'
p3576
aS'HAT-260-0007275'
p3577
aS'HAT-260-0007277'
p3578
aS'HAT-260-0007299'
p3579
aS'HAT-260-0007320'
p3580
aS'HAT-260-0007385'
p3581
aS'HAT-260-0007450'
p3582
aS'HAT-260-0007528'
p3583
aS'HAT-260-0007577'
p3584
aS'HAT-260-0007625'
p3585
aS'HAT-260-0007653'
p3586
aS'HAT-260-0007691'
p3587
aS'HAT-260-0007706'
p3588
aS'HAT-260-0007822'
p3589
aS'HAT-260-0007836'
p3590
aS'HAT-260-0007928'
p3591
aS'HAT-260-0007971'
p3592
aS'HAT-260-0007986'
p3593
aS'HAT-260-0008113'
p3594
aS'HAT-260-0008261'
p3595
aS'HAT-260-0008452'
p3596
aS'HAT-260-0008474'
p3597
aS'HAT-260-0008559'
p3598
aS'HAT-260-0008790'
p3599
aS'HAT-260-0008800'
p3600
aS'HAT-260-0008869'
p3601
aS'HAT-260-0008979'
p3602
aS'HAT-260-0009104'
p3603
aS'HAT-260-0009110'
p3604
aS'HAT-260-0009207'
p3605
aS'HAT-260-0009344'
p3606
aS'HAT-260-0009348'
p3607
aS'HAT-260-0009356'
p3608
aS'HAT-260-0009365'
p3609
aS'HAT-260-0009452'
p3610
aS'HAT-260-0009721'
p3611
aS'HAT-260-0009750'
p3612
aS'HAT-260-0009823'
p3613
aS'HAT-260-0010118'
p3614
aS'HAT-260-0010411'
p3615
aS'HAT-260-0010551'
p3616
aS'HAT-260-0010635'
p3617
aS'HAT-260-0010752'
p3618
aS'HAT-260-0010780'
p3619
aS'HAT-260-0011128'
p3620
aS'HAT-260-0011266'
p3621
aS'HAT-260-0011373'
p3622
aS'HAT-260-0011376'
p3623
aS'HAT-260-0011437'
p3624
aS'HAT-260-0011634'
p3625
aS'HAT-260-0011733'
p3626
aS'HAT-260-0011819'
p3627
aS'HAT-260-0012041'
p3628
aS'HAT-260-0012281'
p3629
aS'HAT-260-0012411'
p3630
aS'HAT-260-0012518'
p3631
aS'HAT-260-0012909'
p3632
aS'HAT-260-0012935'
p3633
aS'HAT-260-0013156'
p3634
aS'HAT-260-0013167'
p3635
aS'HAT-260-0013195'
p3636
aS'HAT-260-0013321'
p3637
aS'HAT-260-0013564'
p3638
aS'HAT-260-0013566'
p3639
aS'HAT-260-0013582'
p3640
aS'HAT-260-0013584'
p3641
aS'HAT-260-0013928'
p3642
aS'HAT-260-0014085'
p3643
aS'HAT-260-0014175'
p3644
aS'HAT-260-0014182'
p3645
aS'HAT-260-0014293'
p3646
aS'HAT-260-0014408'
p3647
aS'HAT-260-0014476'
p3648
aS'HAT-260-0014492'
p3649
aS'HAT-260-0014597'
p3650
aS'HAT-260-0014680'
p3651
aS'HAT-260-0014866'
p3652
aS'HAT-260-0014997'
p3653
aS'HAT-260-0015040'
p3654
aS'HAT-260-0015104'
p3655
aS'HAT-260-0015235'
p3656
aS'HAT-260-0015295'
p3657
aS'HAT-260-0015335'
p3658
aS'HAT-260-0015764'
p3659
aS'HAT-260-0015829'
p3660
aS'HAT-260-0015928'
p3661
aS'HAT-260-0016034'
p3662
aS'HAT-260-0016053'
p3663
aS'HAT-260-0016231'
p3664
aS'HAT-260-0016375'
p3665
aS'HAT-260-0016553'
p3666
aS'HAT-260-0016723'
p3667
aS'HAT-260-0016836'
p3668
aS'HAT-260-0017150'
p3669
aS'HAT-260-0017214'
p3670
aS'HAT-260-0017307'
p3671
aS'HAT-260-0017322'
p3672
aS'HAT-260-0017373'
p3673
aS'HAT-260-0017567'
p3674
aS'HAT-260-0018394'
p3675
aS'HAT-260-0018669'
p3676
aS'HAT-260-0018908'
p3677
aS'HAT-260-0019584'
p3678
aS'HAT-260-0020087'
p3679
aS'HAT-260-0021485'
p3680
aS'HAT-260-0021797'
p3681
aS'HAT-260-0025806'
p3682
aS'HAT-260-0026075'
p3683
aS'HAT-260-0028840'
p3684
aS'HAT-260-0028940'
p3685
aS'HAT-260-0029468'
p3686
aS'HAT-260-0090401'
p3687
aS'HAT-261-0000042'
p3688
aS'HAT-261-0000043'
p3689
aS'HAT-261-0000134'
p3690
aS'HAT-261-0000138'
p3691
aS'HAT-261-0000261'
p3692
aS'HAT-261-0000341'
p3693
aS'HAT-261-0000386'
p3694
aS'HAT-261-0000441'
p3695
aS'HAT-261-0000446'
p3696
aS'HAT-261-0000492'
p3697
aS'HAT-261-0000547'
p3698
aS'HAT-261-0000647'
p3699
aS'HAT-261-0000724'
p3700
aS'HAT-261-0000775'
p3701
aS'HAT-261-0000780'
p3702
aS'HAT-261-0000898'
p3703
aS'HAT-261-0000971'
p3704
aS'HAT-261-0001052'
p3705
aS'HAT-261-0001225'
p3706
aS'HAT-261-0001405'
p3707
aS'HAT-261-0001408'
p3708
aS'HAT-261-0001589'
p3709
aS'HAT-261-0001637'
p3710
aS'HAT-261-0001910'
p3711
aS'HAT-261-0001918'
p3712
aS'HAT-261-0002014'
p3713
aS'HAT-261-0002037'
p3714
aS'HAT-261-0002214'
p3715
aS'HAT-261-0002300'
p3716
aS'HAT-261-0002608'
p3717
aS'HAT-261-0002677'
p3718
aS'HAT-261-0003076'
p3719
aS'HAT-261-0003339'
p3720
aS'HAT-261-0003358'
p3721
aS'HAT-261-0003494'
p3722
aS'HAT-261-0003621'
p3723
aS'HAT-261-0003867'
p3724
aS'HAT-261-0003974'
p3725
aS'HAT-261-0004211'
p3726
aS'HAT-261-0004580'
p3727
aS'HAT-261-0005462'
p3728
aS'HAT-261-0005758'
p3729
aS'HAT-261-0006037'
p3730
aS'HAT-261-0006987'
p3731
aS'HAT-261-0007049'
p3732
aS'HAT-261-0007121'
p3733
aS'HAT-261-0007144'
p3734
aS'HAT-261-0007970'
p3735
aS'HAT-261-0008305'
p3736
aS'HAT-261-0008905'
p3737
aS'HAT-261-0009828'
p3738
aS'HAT-261-0009852'
p3739
aS'HAT-261-0010005'
p3740
aS'HAT-261-0010884'
p3741
aS'HAT-261-0014571'
p3742
aS'HAT-261-0015607'
p3743
aS'HAT-261-0020346'
p3744
aS'HAT-261-0020765'
p3745
aS'HAT-261-0022106'
p3746
aS'HAT-261-0023113'
p3747
aS'HAT-261-0024200'
p3748
aS'HAT-261-0025776'
p3749
aS'HAT-261-0025942'
p3750
aS'HAT-261-0026663'
p3751
aS'HAT-261-0027419'
p3752
aS'HAT-261-0027638'
p3753
aS'HAT-261-0028111'
p3754
aS'HAT-261-0030274'
p3755
aS'HAT-261-0030559'
p3756
aS'HAT-262-0000069'
p3757
aS'HAT-262-0000082'
p3758
aS'HAT-262-0000184'
p3759
aS'HAT-262-0000264'
p3760
aS'HAT-262-0001845'
p3761
aS'HAT-262-0004919'
p3762
aS'HAT-262-0005534'
p3763
aS'HAT-262-0010695'
p3764
aS'HAT-262-0011061'
p3765
aS'HAT-263-0000016'
p3766
aS'HAT-263-0000019'
p3767
aS'HAT-263-0000042'
p3768
aS'HAT-263-0000227'
p3769
aS'HAT-263-0000310'
p3770
aS'HAT-263-0000415'
p3771
aS'HAT-263-0000550'
p3772
aS'HAT-263-0002117'
p3773
aS'HAT-263-0003164'
p3774
aS'HAT-263-0009509'
p3775
aS'HAT-264-0000006'
p3776
aS'HAT-264-0000013'
p3777
aS'HAT-264-0000023'
p3778
aS'HAT-264-0000180'
p3779
aS'HAT-264-0000302'
p3780
aS'HAT-264-0003249'
p3781
aS'HAT-264-0006645'
p3782
aS'HAT-264-0010203'
p3783
aS'HAT-264-0014690'
p3784
aS'HAT-264-0073786'
p3785
aS'HAT-264-0157452'
p3786
aS'HAT-265-0000013'
p3787
aS'HAT-265-0000188'
p3788
aS'HAT-265-0000215'
p3789
aS'HAT-265-0000461'
p3790
aS'HAT-265-0000699'
p3791
aS'HAT-265-0001079'
p3792
aS'HAT-265-0003054'
p3793
aS'HAT-265-0003686'
p3794
aS'HAT-265-0006818'
p3795
aS'HAT-265-0017699'
p3796
aS'HAT-265-0045233'
p3797
aS'HAT-265-0057385'
p3798
aS'HAT-266-0000025'
p3799
aS'HAT-266-0000120'
p3800
aS'HAT-266-0000892'
p3801
aS'HAT-266-0001261'
p3802
aS'HAT-266-0013835'
p3803
aS'HAT-266-0051608'
p3804
aS'HAT-267-0000001'
p3805
aS'HAT-267-0000011'
p3806
aS'HAT-267-0001198'
p3807
aS'HAT-268-0000002'
p3808
aS'HAT-268-0000003'
p3809
aS'HAT-268-0000026'
p3810
aS'HAT-268-0000070'
p3811
aS'HAT-268-0000078'
p3812
aS'HAT-268-0000113'
p3813
aS'HAT-268-0001003'
p3814
aS'HAT-268-0003414'
p3815
aS'HAT-268-0003577'
p3816
aS'HAT-268-0005589'
p3817
aS'HAT-268-0006729'
p3818
aS'HAT-268-0008335'
p3819
aS'HAT-268-0008468'
p3820
aS'HAT-269-0000002'
p3821
aS'HAT-269-0000005'
p3822
aS'HAT-269-0000018'
p3823
aS'HAT-269-0000030'
p3824
aS'HAT-269-0000049'
p3825
aS'HAT-269-0000091'
p3826
aS'HAT-269-0000101'
p3827
aS'HAT-269-0000105'
p3828
aS'HAT-269-0000115'
p3829
aS'HAT-269-0000120'
p3830
aS'HAT-269-0000143'
p3831
aS'HAT-269-0000156'
p3832
aS'HAT-269-0000159'
p3833
aS'HAT-269-0000169'
p3834
aS'HAT-269-0000174'
p3835
aS'HAT-269-0000199'
p3836
aS'HAT-269-0000204'
p3837
aS'HAT-269-0000282'
p3838
aS'HAT-269-0000460'
p3839
aS'HAT-269-0000531'
p3840
aS'HAT-269-0000582'
p3841
aS'HAT-269-0000655'
p3842
aS'HAT-269-0000690'
p3843
aS'HAT-269-0001706'
p3844
aS'HAT-269-0002240'
p3845
aS'HAT-269-0002768'
p3846
aS'HAT-269-0003048'
p3847
aS'HAT-269-0003775'
p3848
aS'HAT-269-0004177'
p3849
aS'HAT-269-0007245'
p3850
aS'HAT-269-0007774'
p3851
aS'HAT-269-0007887'
p3852
aS'HAT-269-0009525'
p3853
aS'HAT-269-0011528'
p3854
aS'HAT-270-0000002'
p3855
aS'HAT-270-0001236'
p3856
aS'HAT-270-0002241'
p3857
aS'HAT-270-0002390'
p3858
aS'HAT-270-0002612'
p3859
aS'HAT-270-0002666'
p3860
aS'HAT-270-0003271'
p3861
aS'HAT-270-0004608'
p3862
aS'HAT-276-0000004'
p3863
aS'HAT-276-0000083'
p3864
aS'HAT-276-0000186'
p3865
aS'HAT-276-0000355'
p3866
aS'HAT-276-0006129'
p3867
aS'HAT-276-0007158'
p3868
aS'HAT-277-0000002'
p3869
aS'HAT-277-0000003'
p3870
aS'HAT-277-0000009'
p3871
aS'HAT-277-0000011'
p3872
aS'HAT-277-0000016'
p3873
aS'HAT-277-0000027'
p3874
aS'HAT-277-0000035'
p3875
aS'HAT-277-0000038'
p3876
aS'HAT-277-0000060'
p3877
aS'HAT-277-0000067'
p3878
aS'HAT-277-0000170'
p3879
aS'HAT-277-0000231'
p3880
aS'HAT-277-0000241'
p3881
aS'HAT-277-0000267'
p3882
aS'HAT-277-0000331'
p3883
aS'HAT-277-0000824'
p3884
aS'HAT-277-0001200'
p3885
aS'HAT-277-0002273'
p3886
aS'HAT-277-0002300'
p3887
aS'HAT-277-0003087'
p3888
aS'HAT-277-0003609'
p3889
aS'HAT-277-0005712'
p3890
aS'HAT-277-0005859'
p3891
aS'HAT-277-0006002'
p3892
aS'HAT-277-0006621'
p3893
aS'HAT-277-0007376'
p3894
aS'HAT-277-0008287'
p3895
aS'HAT-278-0000004'
p3896
aS'HAT-278-0000024'
p3897
aS'HAT-278-0000079'
p3898
aS'HAT-278-0000154'
p3899
aS'HAT-278-0001815'
p3900
aS'HAT-281-0000149'
p3901
aS'HAT-281-0004016'
p3902
aS'HAT-281-0004757'
p3903
aS'HAT-282-0000045'
p3904
aS'HAT-282-0000068'
p3905
aS'HAT-282-0000132'
p3906
aS'HAT-282-0000740'
p3907
aS'HAT-282-0002739'
p3908
aS'HAT-282-0008423'
p3909
aS'HAT-283-0000001'
p3910
aS'HAT-283-0000018'
p3911
aS'HAT-283-0000050'
p3912
aS'HAT-283-0000051'
p3913
aS'HAT-283-0000061'
p3914
aS'HAT-284-0000001'
p3915
aS'HAT-284-0000002'
p3916
aS'HAT-284-0000004'
p3917
aS'HAT-284-0000005'
p3918
aS'HAT-284-0000020'
p3919
aS'HAT-284-0000030'
p3920
aS'HAT-284-0000032'
p3921
aS'HAT-284-0000037'
p3922
aS'HAT-284-0000057'
p3923
aS'HAT-284-0000100'
p3924
aS'HAT-284-0000154'
p3925
aS'HAT-284-0000221'
p3926
aS'HAT-284-0000355'
p3927
aS'HAT-284-0000504'
p3928
aS'HAT-284-0000552'
p3929
aS'HAT-284-0001026'
p3930
aS'HAT-284-0001072'
p3931
aS'HAT-284-0001391'
p3932
aS'HAT-284-0001834'
p3933
aS'HAT-284-0001854'
p3934
aS'HAT-284-0001908'
p3935
aS'HAT-284-0002260'
p3936
aS'HAT-284-0002269'
p3937
aS'HAT-284-0004529'
p3938
aS'HAT-284-0007754'
p3939
aS'HAT-284-0008672'
p3940
aS'HAT-285-0000002'
p3941
aS'HAT-285-0000003'
p3942
aS'HAT-285-0000005'
p3943
aS'HAT-285-0000007'
p3944
aS'HAT-285-0000016'
p3945
aS'HAT-285-0000062'
p3946
aS'HAT-285-0000132'
p3947
aS'HAT-285-0000193'
p3948
aS'HAT-285-0000436'
p3949
aS'HAT-285-0000473'
p3950
aS'HAT-285-0000497'
p3951
aS'HAT-285-0000538'
p3952
aS'HAT-285-0000609'
p3953
aS'HAT-285-0000662'
p3954
aS'HAT-285-0001203'
p3955
aS'HAT-285-0001617'
p3956
aS'HAT-285-0002188'
p3957
aS'HAT-285-0002711'
p3958
aS'HAT-285-0004555'
p3959
aS'HAT-285-0010541'
p3960
aS'HAT-285-0011744'
p3961
aS'HAT-285-0012594'
p3962
aS'HAT-285-0013080'
p3963
aS'HAT-285-0013544'
p3964
aS'HAT-286-0000007'
p3965
aS'HAT-286-0000010'
p3966
aS'HAT-286-0000023'
p3967
aS'HAT-286-0000026'
p3968
aS'HAT-286-0000109'
p3969
aS'HAT-286-0000131'
p3970
aS'HAT-286-0000154'
p3971
aS'HAT-286-0000166'
p3972
aS'HAT-286-0000203'
p3973
aS'HAT-286-0000229'
p3974
aS'HAT-286-0000272'
p3975
aS'HAT-286-0000281'
p3976
aS'HAT-286-0000349'
p3977
aS'HAT-286-0000413'
p3978
aS'HAT-286-0000529'
p3979
aS'HAT-286-0000552'
p3980
aS'HAT-286-0000647'
p3981
aS'HAT-286-0000908'
p3982
aS'HAT-286-0001237'
p3983
aS'HAT-286-0001304'
p3984
aS'HAT-286-0001741'
p3985
aS'HAT-286-0002305'
p3986
aS'HAT-286-0002711'
p3987
aS'HAT-286-0003105'
p3988
aS'HAT-286-0003133'
p3989
aS'HAT-286-0004424'
p3990
aS'HAT-286-0008179'
p3991
aS'HAT-286-0008467'
p3992
aS'HAT-286-0017559'
p3993
aS'HAT-286-0018039'
p3994
aS'HAT-286-0018298'
p3995
aS'HAT-286-0018660'
p3996
aS'HAT-286-0027960'
p3997
aS'HAT-287-0000005'
p3998
aS'HAT-287-0000017'
p3999
aS'HAT-287-0000019'
p4000
aS'HAT-287-0000030'
p4001
aS'HAT-287-0000032'
p4002
aS'HAT-287-0000037'
p4003
aS'HAT-287-0000106'
p4004
aS'HAT-287-0000121'
p4005
aS'HAT-287-0000168'
p4006
aS'HAT-287-0000295'
p4007
aS'HAT-287-0000396'
p4008
aS'HAT-287-0000436'
p4009
aS'HAT-287-0000443'
p4010
aS'HAT-287-0000567'
p4011
aS'HAT-287-0000604'
p4012
aS'HAT-287-0000649'
p4013
aS'HAT-287-0000726'
p4014
aS'HAT-287-0000746'
p4015
aS'HAT-287-0000860'
p4016
aS'HAT-287-0001367'
p4017
aS'HAT-287-0001429'
p4018
aS'HAT-287-0001438'
p4019
aS'HAT-287-0001940'
p4020
aS'HAT-287-0002923'
p4021
aS'HAT-287-0003650'
p4022
aS'HAT-287-0004335'
p4023
aS'HAT-287-0004448'
p4024
aS'HAT-287-0005740'
p4025
aS'HAT-287-0006335'
p4026
aS'HAT-287-0006680'
p4027
aS'HAT-287-0007118'
p4028
aS'HAT-287-0009798'
p4029
aS'HAT-287-0012109'
p4030
aS'HAT-287-0013407'
p4031
aS'HAT-287-0013630'
p4032
aS'HAT-287-0013681'
p4033
aS'HAT-287-0015526'
p4034
aS'HAT-287-0017974'
p4035
aS'HAT-287-0018321'
p4036
aS'HAT-287-0018542'
p4037
aS'HAT-287-0019383'
p4038
aS'HAT-287-0025460'
p4039
aS'HAT-287-0025926'
p4040
aS'HAT-287-0030650'
p4041
aS'HAT-288-0000002'
p4042
aS'HAT-288-0000007'
p4043
aS'HAT-288-0000038'
p4044
aS'HAT-288-0000045'
p4045
aS'HAT-288-0000054'
p4046
aS'HAT-288-0000090'
p4047
aS'HAT-288-0000324'
p4048
aS'HAT-288-0000468'
p4049
aS'HAT-288-0000597'
p4050
aS'HAT-288-0000654'
p4051
aS'HAT-288-0000729'
p4052
aS'HAT-288-0000983'
p4053
aS'HAT-288-0000995'
p4054
aS'HAT-288-0001170'
p4055
aS'HAT-288-0001221'
p4056
aS'HAT-288-0001448'
p4057
aS'HAT-288-0001789'
p4058
aS'HAT-288-0002303'
p4059
aS'HAT-288-0006353'
p4060
aS'HAT-288-0007663'
p4061
aS'HAT-289-0000057'
p4062
aS'HAT-289-0000136'
p4063
aS'HAT-289-0000196'
p4064
aS'HAT-289-0000742'
p4065
aS'HAT-289-0000798'
p4066
aS'HAT-289-0001433'
p4067
aS'HAT-289-0003253'
p4068
aS'HAT-289-0003625'
p4069
aS'HAT-289-0007352'
p4070
aS'HAT-290-0000072'
p4071
aS'HAT-290-0001163'
p4072
aS'HAT-290-0004013'
p4073
aS'HAT-291-0001110'
p4074
aS'HAT-291-0001145'
p4075
aS'HAT-291-0006416'
p4076
aS'HAT-291-0010927'
p4077
aS'HAT-291-0027321'
p4078
aS'HAT-291-0049064'
p4079
aS'HAT-291-0086398'
p4080
aS'HAT-291-0108023'
p4081
aS'HAT-291-0113011'
p4082
aS'HAT-291-0116257'
p4083
aS'HAT-291-0127930'
p4084
aS'HAT-291-0149690'
p4085
aS'HAT-291-0208889'
p4086
aS'HAT-291-0524479'
p4087
aS'HAT-292-0000003'
p4088
aS'HAT-292-0000104'
p4089
aS'HAT-292-0000140'
p4090
aS'HAT-292-0000255'
p4091
aS'HAT-292-0000340'
p4092
aS'HAT-292-0000389'
p4093
aS'HAT-292-0000408'
p4094
aS'HAT-292-0000480'
p4095
aS'HAT-292-0000535'
p4096
aS'HAT-292-0000563'
p4097
aS'HAT-292-0000626'
p4098
aS'HAT-292-0000663'
p4099
aS'HAT-292-0000675'
p4100
aS'HAT-292-0000702'
p4101
aS'HAT-292-0000721'
p4102
aS'HAT-292-0000794'
p4103
aS'HAT-292-0000802'
p4104
aS'HAT-292-0000812'
p4105
aS'HAT-292-0000848'
p4106
aS'HAT-292-0000893'
p4107
aS'HAT-292-0001005'
p4108
aS'HAT-292-0001014'
p4109
aS'HAT-292-0001026'
p4110
aS'HAT-292-0001146'
p4111
aS'HAT-292-0001154'
p4112
aS'HAT-292-0001187'
p4113
aS'HAT-292-0001197'
p4114
aS'HAT-292-0001224'
p4115
aS'HAT-292-0001230'
p4116
aS'HAT-292-0001353'
p4117
aS'HAT-292-0001389'
p4118
aS'HAT-292-0001431'
p4119
aS'HAT-292-0001527'
p4120
aS'HAT-292-0001608'
p4121
aS'HAT-292-0001662'
p4122
aS'HAT-292-0001715'
p4123
aS'HAT-292-0001770'
p4124
aS'HAT-292-0001849'
p4125
aS'HAT-292-0001920'
p4126
aS'HAT-292-0001949'
p4127
aS'HAT-292-0002139'
p4128
aS'HAT-292-0002252'
p4129
aS'HAT-292-0002275'
p4130
aS'HAT-292-0002531'
p4131
aS'HAT-292-0002546'
p4132
aS'HAT-292-0002573'
p4133
aS'HAT-292-0002617'
p4134
aS'HAT-292-0002902'
p4135
aS'HAT-292-0002932'
p4136
aS'HAT-292-0002974'
p4137
aS'HAT-292-0003189'
p4138
aS'HAT-292-0003443'
p4139
aS'HAT-292-0003506'
p4140
aS'HAT-292-0003661'
p4141
aS'HAT-292-0003686'
p4142
aS'HAT-292-0003912'
p4143
aS'HAT-292-0004366'
p4144
aS'HAT-292-0004755'
p4145
aS'HAT-292-0004798'
p4146
aS'HAT-292-0004869'
p4147
aS'HAT-292-0004963'
p4148
aS'HAT-292-0005064'
p4149
aS'HAT-292-0005097'
p4150
aS'HAT-292-0005289'
p4151
aS'HAT-292-0005480'
p4152
aS'HAT-292-0005658'
p4153
aS'HAT-292-0005693'
p4154
aS'HAT-292-0005861'
p4155
aS'HAT-292-0005878'
p4156
aS'HAT-292-0006217'
p4157
aS'HAT-292-0006598'
p4158
aS'HAT-292-0006708'
p4159
aS'HAT-292-0007002'
p4160
aS'HAT-292-0007950'
p4161
aS'HAT-292-0008438'
p4162
aS'HAT-292-0010595'
p4163
aS'HAT-292-0011880'
p4164
aS'HAT-292-0011909'
p4165
aS'HAT-292-0012484'
p4166
aS'HAT-292-0012849'
p4167
aS'HAT-292-0013910'
p4168
aS'HAT-292-0015068'
p4169
aS'HAT-292-0016051'
p4170
aS'HAT-292-0016205'
p4171
aS'HAT-292-0018025'
p4172
aS'HAT-292-0019475'
p4173
aS'HAT-292-0021648'
p4174
aS'HAT-292-0021843'
p4175
aS'HAT-292-0023141'
p4176
aS'HAT-292-0024518'
p4177
aS'HAT-292-0025677'
p4178
aS'HAT-292-0027508'
p4179
aS'HAT-292-0027845'
p4180
aS'HAT-292-0029674'
p4181
aS'HAT-292-0031408'
p4182
aS'HAT-292-0033355'
p4183
aS'HAT-292-0033482'
p4184
aS'HAT-292-0041856'
p4185
aS'HAT-292-0046281'
p4186
aS'HAT-292-0052558'
p4187
aS'HAT-292-0053109'
p4188
aS'HAT-292-0053884'
p4189
aS'HAT-292-0056348'
p4190
aS'HAT-292-0067171'
p4191
aS'HAT-292-0069207'
p4192
aS'HAT-292-0073830'
p4193
aS'HAT-292-0090990'
p4194
aS'HAT-292-0105438'
p4195
aS'HAT-292-0115242'
p4196
aS'HAT-292-0122896'
p4197
aS'HAT-292-0191098'
p4198
aS'HAT-292-0213239'
p4199
aS'HAT-292-0391710'
p4200
aS'HAT-292-0505781'
p4201
aS'HAT-292-0800607'
p4202
aS'HAT-292-0824019'
p4203
aS'HAT-292-1875739'
p4204
aS'HAT-292-2066946'
p4205
aS'HAT-292-2215321'
p4206
aS'HAT-292-2343651'
p4207
aS'HAT-293-0000002'
p4208
aS'HAT-293-0000006'
p4209
aS'HAT-293-0000008'
p4210
aS'HAT-293-0000009'
p4211
aS'HAT-293-0000011'
p4212
aS'HAT-293-0000030'
p4213
aS'HAT-293-0000039'
p4214
aS'HAT-293-0000060'
p4215
aS'HAT-293-0000061'
p4216
aS'HAT-293-0000088'
p4217
aS'HAT-293-0000114'
p4218
aS'HAT-293-0000121'
p4219
aS'HAT-293-0000191'
p4220
aS'HAT-293-0000198'
p4221
aS'HAT-293-0000212'
p4222
aS'HAT-293-0000214'
p4223
aS'HAT-293-0000254'
p4224
aS'HAT-293-0000388'
p4225
aS'HAT-293-0000427'
p4226
aS'HAT-293-0000481'
p4227
aS'HAT-293-0000483'
p4228
aS'HAT-293-0000728'
p4229
aS'HAT-293-0000789'
p4230
aS'HAT-293-0000891'
p4231
aS'HAT-293-0000893'
p4232
aS'HAT-293-0000984'
p4233
aS'HAT-293-0001051'
p4234
aS'HAT-293-0001184'
p4235
aS'HAT-293-0001201'
p4236
aS'HAT-293-0001803'
p4237
aS'HAT-293-0001976'
p4238
aS'HAT-293-0002097'
p4239
aS'HAT-293-0002237'
p4240
aS'HAT-293-0003128'
p4241
aS'HAT-293-0003272'
p4242
aS'HAT-293-0003446'
p4243
aS'HAT-293-0003868'
p4244
aS'HAT-293-0004454'
p4245
aS'HAT-293-0004526'
p4246
aS'HAT-293-0005116'
p4247
aS'HAT-293-0005426'
p4248
aS'HAT-293-0005664'
p4249
aS'HAT-293-0006157'
p4250
aS'HAT-293-0006663'
p4251
aS'HAT-293-0006704'
p4252
aS'HAT-293-0006951'
p4253
aS'HAT-293-0007272'
p4254
aS'HAT-293-0007604'
p4255
aS'HAT-293-0007607'
p4256
aS'HAT-293-0007849'
p4257
aS'HAT-293-0008027'
p4258
aS'HAT-293-0008403'
p4259
aS'HAT-293-0008649'
p4260
aS'HAT-293-0008969'
p4261
aS'HAT-293-0009091'
p4262
aS'HAT-293-0009556'
p4263
aS'HAT-293-0010408'
p4264
aS'HAT-293-0010854'
p4265
aS'HAT-293-0013889'
p4266
aS'HAT-293-0020039'
p4267
aS'HAT-293-0020232'
p4268
aS'HAT-293-0020852'
p4269
aS'HAT-293-0021025'
p4270
aS'HAT-293-0021889'
p4271
aS'HAT-293-0022993'
p4272
aS'HAT-293-0023915'
p4273
aS'HAT-293-0030274'
p4274
aS'HAT-293-0032014'
p4275
aS'HAT-293-0035461'
p4276
aS'HAT-293-0035714'
p4277
aS'HAT-293-0038473'
p4278
aS'HAT-293-0041584'
p4279
aS'HAT-293-0049660'
p4280
aS'HAT-293-0067607'
p4281
aS'HAT-293-0071968'
p4282
aS'HAT-293-0122202'
p4283
aS'HAT-293-0130741'
p4284
aS'HAT-293-0358615'
p4285
aS'HAT-293-0494782'
p4286
aS'HAT-294-0000001'
p4287
aS'HAT-294-0000002'
p4288
aS'HAT-294-0000004'
p4289
aS'HAT-294-0000005'
p4290
aS'HAT-294-0000008'
p4291
aS'HAT-294-0000012'
p4292
aS'HAT-294-0000019'
p4293
aS'HAT-294-0000036'
p4294
aS'HAT-294-0000043'
p4295
aS'HAT-294-0000105'
p4296
aS'HAT-294-0000250'
p4297
aS'HAT-294-0000281'
p4298
aS'HAT-294-0000316'
p4299
aS'HAT-294-0000448'
p4300
aS'HAT-294-0001489'
p4301
aS'HAT-294-0002046'
p4302
aS'HAT-294-0002583'
p4303
aS'HAT-294-0003317'
p4304
aS'HAT-294-0003742'
p4305
aS'HAT-294-0004083'
p4306
aS'HAT-294-0005126'
p4307
aS'HAT-294-0006252'
p4308
aS'HAT-294-0007137'
p4309
aS'HAT-294-0007963'
p4310
aS'HAT-294-0008713'
p4311
aS'HAT-294-0009084'
p4312
aS'HAT-294-0009313'
p4313
aS'HAT-294-0010691'
p4314
aS'HAT-294-0012194'
p4315
aS'HAT-294-0017559'
p4316
aS'HAT-294-0024790'
p4317
aS'HAT-294-0056165'
p4318
aS'HAT-295-0000009'
p4319
aS'HAT-295-0000012'
p4320
aS'HAT-295-0000145'
p4321
aS'HAT-295-0000883'
p4322
aS'HAT-295-0005749'
p4323
aS'HAT-295-0008103'
p4324
aS'HAT-295-0023160'
p4325
aS'HAT-295-0032564'
p4326
aS'HAT-297-0001416'
p4327
aS'HAT-300-0000001'
p4328
aS'HAT-300-0000003'
p4329
aS'HAT-300-0000007'
p4330
aS'HAT-300-0000024'
p4331
aS'HAT-300-0000040'
p4332
aS'HAT-300-0000066'
p4333
aS'HAT-300-0000068'
p4334
aS'HAT-300-0000231'
p4335
aS'HAT-300-0000249'
p4336
aS'HAT-300-0000849'
p4337
aS'HAT-300-0000864'
p4338
aS'HAT-300-0002531'
p4339
aS'HAT-300-0005813'
p4340
aS'HAT-300-0008399'
p4341
aS'HAT-301-0000004'
p4342
aS'HAT-301-0000245'
p4343
aS'HAT-305-0000001'
p4344
aS'HAT-305-0000025'
p4345
aS'HAT-305-0001548'
p4346
aS'HAT-305-0002614'
p4347
aS'HAT-306-0000001'
p4348
aS'HAT-306-0000002'
p4349
aS'HAT-307-0000038'
p4350
aS'HAT-307-0000262'
p4351
aS'HAT-307-0005454'
p4352
aS'HAT-308-0000053'
p4353
aS'HAT-308-0000818'
p4354
aS'HAT-308-0001145'
p4355
aS'HAT-308-0001853'
p4356
aS'HAT-308-0004561'
p4357
aS'HAT-308-0092156'
p4358
aS'HAT-309-0000001'
p4359
aS'HAT-309-0000002'
p4360
aS'HAT-309-0000005'
p4361
aS'HAT-309-0000018'
p4362
aS'HAT-309-0000029'
p4363
aS'HAT-309-0000046'
p4364
aS'HAT-309-0000062'
p4365
aS'HAT-309-0000063'
p4366
aS'HAT-309-0000065'
p4367
aS'HAT-309-0000066'
p4368
aS'HAT-309-0000071'
p4369
aS'HAT-309-0000073'
p4370
aS'HAT-309-0000076'
p4371
aS'HAT-309-0000078'
p4372
aS'HAT-309-0000092'
p4373
aS'HAT-309-0000097'
p4374
aS'HAT-309-0000100'
p4375
aS'HAT-309-0000114'
p4376
aS'HAT-309-0000116'
p4377
aS'HAT-309-0000124'
p4378
aS'HAT-309-0000176'
p4379
aS'HAT-309-0000202'
p4380
aS'HAT-309-0000281'
p4381
aS'HAT-309-0000373'
p4382
aS'HAT-309-0000413'
p4383
aS'HAT-309-0000418'
p4384
aS'HAT-309-0000432'
p4385
aS'HAT-309-0000510'
p4386
aS'HAT-309-0000536'
p4387
aS'HAT-309-0000550'
p4388
aS'HAT-309-0000559'
p4389
aS'HAT-309-0000644'
p4390
aS'HAT-309-0000707'
p4391
aS'HAT-309-0000710'
p4392
aS'HAT-309-0000726'
p4393
aS'HAT-309-0000805'
p4394
aS'HAT-309-0000899'
p4395
aS'HAT-309-0000909'
p4396
aS'HAT-309-0000992'
p4397
aS'HAT-309-0001069'
p4398
aS'HAT-309-0001128'
p4399
aS'HAT-309-0001212'
p4400
aS'HAT-309-0001225'
p4401
aS'HAT-309-0001242'
p4402
aS'HAT-309-0001490'
p4403
aS'HAT-309-0001624'
p4404
aS'HAT-309-0001707'
p4405
aS'HAT-309-0001981'
p4406
aS'HAT-309-0002081'
p4407
aS'HAT-309-0002154'
p4408
aS'HAT-309-0002379'
p4409
aS'HAT-309-0002381'
p4410
aS'HAT-309-0002510'
p4411
aS'HAT-309-0002734'
p4412
aS'HAT-309-0002765'
p4413
aS'HAT-309-0002871'
p4414
aS'HAT-309-0002955'
p4415
aS'HAT-309-0003032'
p4416
aS'HAT-309-0003201'
p4417
aS'HAT-309-0003983'
p4418
aS'HAT-309-0004533'
p4419
aS'HAT-309-0103739'
p4420
aS'HAT-309-0120330'
p4421
aS'HAT-310-0000005'
p4422
aS'HAT-310-0000007'
p4423
aS'HAT-310-0000076'
p4424
aS'HAT-310-0000110'
p4425
aS'HAT-310-0000137'
p4426
aS'HAT-310-0000308'
p4427
aS'HAT-310-0000458'
p4428
aS'HAT-310-0000585'
p4429
aS'HAT-310-0001982'
p4430
aS'HAT-310-0002639'
p4431
aS'HAT-310-0002835'
p4432
aS'HAT-310-0003213'
p4433
aS'HAT-310-0003528'
p4434
aS'HAT-310-0003935'
p4435
aS'HAT-310-0004236'
p4436
aS'HAT-310-0004386'
p4437
aS'HAT-310-0004757'
p4438
aS'HAT-310-0006017'
p4439
aS'HAT-310-0006612'
p4440
aS'HAT-310-0007312'
p4441
aS'HAT-310-0007766'
p4442
aS'HAT-310-0012907'
p4443
aS'HAT-310-0023558'
p4444
aS'HAT-310-0024109'
p4445
aS'HAT-311-0000001'
p4446
aS'HAT-311-0000002'
p4447
aS'HAT-311-0000003'
p4448
aS'HAT-311-0000005'
p4449
aS'HAT-311-0000009'
p4450
aS'HAT-311-0000029'
p4451
aS'HAT-311-0000047'
p4452
aS'HAT-311-0000058'
p4453
aS'HAT-311-0000059'
p4454
aS'HAT-311-0000060'
p4455
aS'HAT-311-0000064'
p4456
aS'HAT-311-0000097'
p4457
aS'HAT-311-0000124'
p4458
aS'HAT-311-0000188'
p4459
aS'HAT-311-0000234'
p4460
aS'HAT-311-0000237'
p4461
aS'HAT-311-0000266'
p4462
aS'HAT-311-0000334'
p4463
aS'HAT-311-0000368'
p4464
aS'HAT-311-0000435'
p4465
aS'HAT-311-0000524'
p4466
aS'HAT-311-0000624'
p4467
aS'HAT-311-0000767'
p4468
aS'HAT-311-0000770'
p4469
aS'HAT-311-0000816'
p4470
aS'HAT-311-0000925'
p4471
aS'HAT-311-0001494'
p4472
aS'HAT-311-0001634'
p4473
aS'HAT-311-0001772'
p4474
aS'HAT-311-0002637'
p4475
aS'HAT-311-0002777'
p4476
aS'HAT-311-0003114'
p4477
aS'HAT-311-0003910'
p4478
aS'HAT-311-0004379'
p4479
aS'HAT-311-0004783'
p4480
aS'HAT-311-0005127'
p4481
aS'HAT-311-0005215'
p4482
aS'HAT-311-0005995'
p4483
aS'HAT-311-0007357'
p4484
aS'HAT-311-0007712'
p4485
aS'HAT-311-0009132'
p4486
aS'HAT-311-0009906'
p4487
aS'HAT-311-0009945'
p4488
aS'HAT-311-0010013'
p4489
aS'HAT-311-0010899'
p4490
aS'HAT-311-0010955'
p4491
aS'HAT-311-0012838'
p4492
aS'HAT-311-0012878'
p4493
aS'HAT-311-0013609'
p4494
aS'HAT-311-0015833'
p4495
aS'HAT-311-0018598'
p4496
aS'HAT-311-0018653'
p4497
aS'HAT-311-0019193'
p4498
aS'HAT-311-0020926'
p4499
aS'HAT-311-0022163'
p4500
aS'HAT-311-0023579'
p4501
aS'HAT-311-0025202'
p4502
aS'HAT-311-0025424'
p4503
aS'HAT-311-0025966'
p4504
aS'HAT-311-0028549'
p4505
aS'HAT-311-0031435'
p4506
aS'HAT-311-0035459'
p4507
aS'HAT-311-0335090'
p4508
aS'HAT-312-0000009'
p4509
aS'HAT-312-0000017'
p4510
aS'HAT-312-0000043'
p4511
aS'HAT-312-0000052'
p4512
aS'HAT-312-0000112'
p4513
aS'HAT-312-0000135'
p4514
aS'HAT-312-0000201'
p4515
aS'HAT-312-0000480'
p4516
aS'HAT-312-0000485'
p4517
aS'HAT-312-0000593'
p4518
aS'HAT-312-0000648'
p4519
aS'HAT-312-0000811'
p4520
aS'HAT-312-0001282'
p4521
aS'HAT-312-0001454'
p4522
aS'HAT-312-0002423'
p4523
aS'HAT-312-0004032'
p4524
aS'HAT-312-0005522'
p4525
aS'HAT-313-0000090'
p4526
aS'HAT-313-0000334'
p4527
aS'HAT-313-0000349'
p4528
aS'HAT-313-0000750'
p4529
aS'HAT-313-0000797'
p4530
aS'HAT-313-0001881'
p4531
aS'HAT-313-0004613'
p4532
aS'HAT-313-0006037'
p4533
aS'HAT-313-0009076'
p4534
aS'HAT-313-0037362'
p4535
aS'HAT-313-0046659'
p4536
aS'HAT-313-0337755'
p4537
aS'HAT-314-0000001'
p4538
aS'HAT-314-0000002'
p4539
aS'HAT-314-0000005'
p4540
aS'HAT-314-0000009'
p4541
aS'HAT-314-0000010'
p4542
aS'HAT-314-0000018'
p4543
aS'HAT-314-0000020'
p4544
aS'HAT-314-0000062'
p4545
aS'HAT-314-0000102'
p4546
aS'HAT-314-0000118'
p4547
aS'HAT-314-0000144'
p4548
aS'HAT-314-0000148'
p4549
aS'HAT-314-0000169'
p4550
aS'HAT-314-0000176'
p4551
aS'HAT-314-0000178'
p4552
aS'HAT-314-0000190'
p4553
aS'HAT-314-0000192'
p4554
aS'HAT-314-0000219'
p4555
aS'HAT-314-0000332'
p4556
aS'HAT-314-0000346'
p4557
aS'HAT-314-0000371'
p4558
aS'HAT-314-0000387'
p4559
aS'HAT-314-0000489'
p4560
aS'HAT-314-0000492'
p4561
aS'HAT-314-0000569'
p4562
aS'HAT-314-0000720'
p4563
aS'HAT-314-0000789'
p4564
aS'HAT-314-0000855'
p4565
aS'HAT-314-0000928'
p4566
aS'HAT-314-0000980'
p4567
aS'HAT-314-0001666'
p4568
aS'HAT-314-0002184'
p4569
aS'HAT-314-0002298'
p4570
aS'HAT-314-0002883'
p4571
aS'HAT-314-0003295'
p4572
aS'HAT-314-0003449'
p4573
aS'HAT-314-0004424'
p4574
aS'HAT-314-0006744'
p4575
aS'HAT-314-0007731'
p4576
aS'HAT-314-0008104'
p4577
aS'HAT-314-0009450'
p4578
aS'HAT-314-0009597'
p4579
aS'HAT-314-0010279'
p4580
aS'HAT-314-0010719'
p4581
aS'HAT-314-0011162'
p4582
aS'HAT-314-0012970'
p4583
aS'HAT-314-0013214'
p4584
aS'HAT-314-0016285'
p4585
aS'HAT-314-0017678'
p4586
aS'HAT-314-0019185'
p4587
aS'HAT-314-0019494'
p4588
aS'HAT-314-0021845'
p4589
aS'HAT-314-0022752'
p4590
aS'HAT-314-0023204'
p4591
aS'HAT-314-0025595'
p4592
aS'HAT-314-0029450'
p4593
aS'HAT-314-0033316'
p4594
aS'HAT-314-0036713'
p4595
aS'HAT-314-0040044'
p4596
aS'HAT-314-0046614'
p4597
aS'HAT-314-0050660'
p4598
aS'HAT-314-0051043'
p4599
aS'HAT-314-0051062'
p4600
aS'HAT-314-0051262'
p4601
aS'HAT-314-0054888'
p4602
aS'HAT-314-0057918'
p4603
aS'HAT-314-0067594'
p4604
aS'HAT-314-0132802'
p4605
aS'HAT-314-0252942'
p4606
aS'HAT-314-0689270'
p4607
aS'HAT-315-0000001'
p4608
aS'HAT-315-0000018'
p4609
aS'HAT-315-0000073'
p4610
aS'HAT-315-0000114'
p4611
aS'HAT-315-0006255'
p4612
aS'HAT-316-0000006'
p4613
aS'HAT-316-0000084'
p4614
aS'HAT-316-0000113'
p4615
aS'HAT-316-0000316'
p4616
aS'HAT-316-0001271'
p4617
aS'HAT-316-0002290'
p4618
aS'HAT-317-0000001'
p4619
aS'HAT-317-0000002'
p4620
aS'HAT-317-0000003'
p4621
aS'HAT-317-0000047'
p4622
aS'HAT-317-0000090'
p4623
aS'HAT-317-0000232'
p4624
aS'HAT-317-0000975'
p4625
aS'HAT-317-0000982'
p4626
aS'HAT-317-0001766'
p4627
aS'HAT-317-0001818'
p4628
aS'HAT-317-0002599'
p4629
aS'HAT-317-0004528'
p4630
aS'HAT-317-0005794'
p4631
aS'HAT-317-0009900'
p4632
aS'HAT-317-0013681'
p4633
aS'HAT-317-0015327'
p4634
aS'HAT-317-0017071'
p4635
aS'HAT-318-0000001'
p4636
aS'HAT-318-0000002'
p4637
aS'HAT-318-0000003'
p4638
aS'HAT-318-0000004'
p4639
aS'HAT-318-0000066'
p4640
aS'HAT-318-0000612'
p4641
aS'HAT-318-0001285'
p4642
aS'HAT-318-0001298'
p4643
aS'HAT-318-0001357'
p4644
aS'HAT-318-0001697'
p4645
aS'HAT-318-0002348'
p4646
aS'HAT-318-0002570'
p4647
aS'HAT-318-0002704'
p4648
aS'HAT-318-0002971'
p4649
aS'HAT-318-0003017'
p4650
aS'HAT-318-0003380'
p4651
aS'HAT-318-0003875'
p4652
aS'HAT-318-0004362'
p4653
aS'HAT-318-0004369'
p4654
aS'HAT-318-0004651'
p4655
aS'HAT-318-0005219'
p4656
aS'HAT-318-0005243'
p4657
aS'HAT-318-0005810'
p4658
aS'HAT-318-0006454'
p4659
aS'HAT-318-0006807'
p4660
aS'HAT-318-0008578'
p4661
aS'HAT-318-0008899'
p4662
aS'HAT-318-0010711'
p4663
aS'HAT-318-0012084'
p4664
aS'HAT-318-0013384'
p4665
aS'HAT-318-0014052'
p4666
aS'HAT-319-0000128'
p4667
aS'HAT-319-0002087'
p4668
aS'HAT-319-0002709'
p4669
aS'HAT-319-0006282'
p4670
aS'HAT-319-0010077'
p4671
aS'HAT-324-0000748'
p4672
aS'HAT-325-0000002'
p4673
aS'HAT-325-0000382'
p4674
aS'HAT-325-0000584'
p4675
aS'HAT-325-0004844'
p4676
aS'HAT-326-0000558'
p4677
aS'HAT-328-0005148'
p4678
aS'HAT-329-0000041'
p4679
aS'HAT-329-0000364'
p4680
aS'HAT-330-0005524'
p4681
aS'HAT-332-0000011'
p4682
aS'HAT-332-0001158'
p4683
aS'HAT-332-0001176'
p4684
aS'HAT-332-0003661'
p4685
aS'HAT-332-0004129'
p4686
aS'HAT-332-0010239'
p4687
aS'HAT-332-0012357'
p4688
aS'HAT-333-0000078'
p4689
aS'HAT-333-0000740'
p4690
aS'HAT-333-0001839'
p4691
aS'HAT-333-0002132'
p4692
aS'HAT-333-0010998'
p4693
aS'HAT-333-0014812'
p4694
aS'HAT-334-0000011'
p4695
aS'HAT-334-0000061'
p4696
aS'HAT-334-0000188'
p4697
aS'HAT-334-0000610'
p4698
aS'HAT-334-0002556'
p4699
aS'HAT-334-0008808'
p4700
aS'HAT-335-0000002'
p4701
aS'HAT-335-0000007'
p4702
aS'HAT-335-0000183'
p4703
aS'HAT-335-0000211'
p4704
aS'HAT-335-0000342'
p4705
aS'HAT-335-0000430'
p4706
aS'HAT-335-0000575'
p4707
aS'HAT-335-0000609'
p4708
aS'HAT-335-0000812'
p4709
aS'HAT-335-0001480'
p4710
aS'HAT-335-0003018'
p4711
aS'HAT-335-0006873'
p4712
aS'HAT-335-0012968'
p4713
aS'HAT-335-0015669'
p4714
aS'HAT-335-0022513'
p4715
aS'HAT-336-0000082'
p4716
aS'HAT-336-0000184'
p4717
aS'HAT-336-0000339'
p4718
aS'HAT-336-0000836'
p4719
aS'HAT-336-0001025'
p4720
aS'HAT-336-0002124'
p4721
aS'HAT-336-0002224'
p4722
aS'HAT-336-0009026'
p4723
aS'HAT-336-0009300'
p4724
aS'HAT-336-0015510'
p4725
aS'HAT-336-0024386'
p4726
aS'HAT-336-0028425'
p4727
aS'HAT-336-0036076'
p4728
aS'HAT-336-0045434'
p4729
aS'HAT-336-0062510'
p4730
aS'HAT-337-0000001'
p4731
aS'HAT-337-0000887'
p4732
aS'HAT-337-0003214'
p4733
aS'HAT-337-0006191'
p4734
aS'HAT-337-0015776'
p4735
aS'HAT-339-0000179'
p4736
aS'HAT-339-0000237'
p4737
aS'HAT-339-0000317'
p4738
aS'HAT-339-0000338'
p4739
aS'HAT-339-0000405'
p4740
aS'HAT-339-0000468'
p4741
aS'HAT-339-0000733'
p4742
aS'HAT-339-0001050'
p4743
aS'HAT-339-0001531'
p4744
aS'HAT-339-0001587'
p4745
aS'HAT-339-0002017'
p4746
aS'HAT-339-0005360'
p4747
aS'HAT-339-0092753'
p4748
aS'HAT-339-0101490'
p4749
aS'HAT-339-0667505'
p4750
aS'HAT-339-1318637'
p4751
aS'HAT-340-0000003'
p4752
aS'HAT-340-0000019'
p4753
aS'HAT-340-0000023'
p4754
aS'HAT-340-0000045'
p4755
aS'HAT-340-0000067'
p4756
aS'HAT-340-0000096'
p4757
aS'HAT-340-0000124'
p4758
aS'HAT-340-0000127'
p4759
aS'HAT-340-0000152'
p4760
aS'HAT-340-0000155'
p4761
aS'HAT-340-0000169'
p4762
aS'HAT-340-0000185'
p4763
aS'HAT-340-0000219'
p4764
aS'HAT-340-0000275'
p4765
aS'HAT-340-0000419'
p4766
aS'HAT-340-0000471'
p4767
aS'HAT-340-0000550'
p4768
aS'HAT-340-0000582'
p4769
aS'HAT-340-0000602'
p4770
aS'HAT-340-0000681'
p4771
aS'HAT-340-0000883'
p4772
aS'HAT-340-0001017'
p4773
aS'HAT-340-0001074'
p4774
aS'HAT-340-0001243'
p4775
aS'HAT-340-0001295'
p4776
aS'HAT-340-0001323'
p4777
aS'HAT-340-0001437'
p4778
aS'HAT-340-0001585'
p4779
aS'HAT-340-0001900'
p4780
aS'HAT-340-0002231'
p4781
aS'HAT-340-0002472'
p4782
aS'HAT-340-0002526'
p4783
aS'HAT-340-0002642'
p4784
aS'HAT-340-0002653'
p4785
aS'HAT-340-0002999'
p4786
aS'HAT-340-0003051'
p4787
aS'HAT-340-0003277'
p4788
aS'HAT-340-0004217'
p4789
aS'HAT-340-0004795'
p4790
aS'HAT-340-0004882'
p4791
aS'HAT-340-0004992'
p4792
aS'HAT-340-0005075'
p4793
aS'HAT-340-0005376'
p4794
aS'HAT-340-0005499'
p4795
aS'HAT-340-0005673'
p4796
aS'HAT-340-0006132'
p4797
aS'HAT-340-0006231'
p4798
aS'HAT-340-0006495'
p4799
aS'HAT-340-0006518'
p4800
aS'HAT-340-0007895'
p4801
aS'HAT-340-0008214'
p4802
aS'HAT-340-0011426'
p4803
aS'HAT-340-0012296'
p4804
aS'HAT-340-0013486'
p4805
aS'HAT-340-0014322'
p4806
aS'HAT-340-0014593'
p4807
aS'HAT-340-0014654'
p4808
aS'HAT-340-0014912'
p4809
aS'HAT-340-0018581'
p4810
aS'HAT-340-0020274'
p4811
aS'HAT-340-0021243'
p4812
aS'HAT-340-0023389'
p4813
aS'HAT-340-0028141'
p4814
aS'HAT-340-0029063'
p4815
aS'HAT-340-0029316'
p4816
aS'HAT-340-0035449'
p4817
aS'HAT-340-0048064'
p4818
aS'HAT-340-0050142'
p4819
aS'HAT-340-0078543'
p4820
aS'HAT-340-0082316'
p4821
aS'HAT-340-0091942'
p4822
aS'HAT-340-0095183'
p4823
aS'HAT-340-0101319'
p4824
aS'HAT-340-0102896'
p4825
aS'HAT-340-0102969'
p4826
aS'HAT-340-0107304'
p4827
aS'HAT-340-0108422'
p4828
aS'HAT-340-0118479'
p4829
aS'HAT-340-0126622'
p4830
aS'HAT-340-0159578'
p4831
aS'HAT-340-0184797'
p4832
aS'HAT-340-0197172'
p4833
aS'HAT-340-0532328'
p4834
aS'HAT-340-0604211'
p4835
aS'HAT-340-0814443'
p4836
aS'HAT-340-0880581'
p4837
aS'HAT-340-1866967'
p4838
aS'HAT-341-0000002'
p4839
aS'HAT-341-0000003'
p4840
aS'HAT-341-0000008'
p4841
aS'HAT-341-0000012'
p4842
aS'HAT-341-0000021'
p4843
aS'HAT-341-0000022'
p4844
aS'HAT-341-0000024'
p4845
aS'HAT-341-0000026'
p4846
aS'HAT-341-0000047'
p4847
aS'HAT-341-0000060'
p4848
aS'HAT-341-0000065'
p4849
aS'HAT-341-0000070'
p4850
aS'HAT-341-0000074'
p4851
aS'HAT-341-0000089'
p4852
aS'HAT-341-0000127'
p4853
aS'HAT-341-0000166'
p4854
aS'HAT-341-0000180'
p4855
aS'HAT-341-0000194'
p4856
aS'HAT-341-0000204'
p4857
aS'HAT-341-0000233'
p4858
aS'HAT-341-0000237'
p4859
aS'HAT-341-0000280'
p4860
aS'HAT-341-0000291'
p4861
aS'HAT-341-0000338'
p4862
aS'HAT-341-0000369'
p4863
aS'HAT-341-0000406'
p4864
aS'HAT-341-0000447'
p4865
aS'HAT-341-0000457'
p4866
aS'HAT-341-0000469'
p4867
aS'HAT-341-0000477'
p4868
aS'HAT-341-0000540'
p4869
aS'HAT-341-0000577'
p4870
aS'HAT-341-0000634'
p4871
aS'HAT-341-0000679'
p4872
aS'HAT-341-0000680'
p4873
aS'HAT-341-0000711'
p4874
aS'HAT-341-0000802'
p4875
aS'HAT-341-0000816'
p4876
aS'HAT-341-0000904'
p4877
aS'HAT-341-0000930'
p4878
aS'HAT-341-0000970'
p4879
aS'HAT-341-0000973'
p4880
aS'HAT-341-0000979'
p4881
aS'HAT-341-0001017'
p4882
aS'HAT-341-0001022'
p4883
aS'HAT-341-0001061'
p4884
aS'HAT-341-0001076'
p4885
aS'HAT-341-0001082'
p4886
aS'HAT-341-0001086'
p4887
aS'HAT-341-0001099'
p4888
aS'HAT-341-0001115'
p4889
aS'HAT-341-0001235'
p4890
aS'HAT-341-0001305'
p4891
aS'HAT-341-0001314'
p4892
aS'HAT-341-0001331'
p4893
aS'HAT-341-0001390'
p4894
aS'HAT-341-0001414'
p4895
aS'HAT-341-0001452'
p4896
aS'HAT-341-0001565'
p4897
aS'HAT-341-0001603'
p4898
aS'HAT-341-0001733'
p4899
aS'HAT-341-0001744'
p4900
aS'HAT-341-0001801'
p4901
aS'HAT-341-0001836'
p4902
aS'HAT-341-0001912'
p4903
aS'HAT-341-0001920'
p4904
aS'HAT-341-0001959'
p4905
aS'HAT-341-0002087'
p4906
aS'HAT-341-0002113'
p4907
aS'HAT-341-0002171'
p4908
aS'HAT-341-0002257'
p4909
aS'HAT-341-0002445'
p4910
aS'HAT-341-0002675'
p4911
aS'HAT-341-0002774'
p4912
aS'HAT-341-0002994'
p4913
aS'HAT-341-0003201'
p4914
aS'HAT-341-0003422'
p4915
aS'HAT-341-0003560'
p4916
aS'HAT-341-0004223'
p4917
aS'HAT-341-0004373'
p4918
aS'HAT-341-0004556'
p4919
aS'HAT-341-0005590'
p4920
aS'HAT-341-0005616'
p4921
aS'HAT-341-0007365'
p4922
aS'HAT-341-0008294'
p4923
aS'HAT-341-0010271'
p4924
aS'HAT-341-0010376'
p4925
aS'HAT-341-0010896'
p4926
aS'HAT-341-0011300'
p4927
aS'HAT-341-0013326'
p4928
aS'HAT-341-0014154'
p4929
aS'HAT-341-0014684'
p4930
aS'HAT-341-0014690'
p4931
aS'HAT-341-0014851'
p4932
aS'HAT-341-0016263'
p4933
aS'HAT-341-0016590'
p4934
aS'HAT-341-0017189'
p4935
aS'HAT-341-0017372'
p4936
aS'HAT-341-0019228'
p4937
aS'HAT-341-0020054'
p4938
aS'HAT-341-0021590'
p4939
aS'HAT-341-0021704'
p4940
aS'HAT-341-0021798'
p4941
aS'HAT-341-0022509'
p4942
aS'HAT-341-0023186'
p4943
aS'HAT-341-0023540'
p4944
aS'HAT-341-0027281'
p4945
aS'HAT-341-0030196'
p4946
aS'HAT-341-0030919'
p4947
aS'HAT-341-0031016'
p4948
aS'HAT-341-0033088'
p4949
aS'HAT-341-0033519'
p4950
aS'HAT-341-0034069'
p4951
aS'HAT-341-0037354'
p4952
aS'HAT-341-0038630'
p4953
aS'HAT-341-0042504'
p4954
aS'HAT-341-0044799'
p4955
aS'HAT-341-0046156'
p4956
aS'HAT-341-0053220'
p4957
aS'HAT-341-0063379'
p4958
aS'HAT-341-0067494'
p4959
aS'HAT-341-0070364'
p4960
aS'HAT-341-0072141'
p4961
aS'HAT-341-0073438'
p4962
aS'HAT-341-0073752'
p4963
aS'HAT-341-0074799'
p4964
aS'HAT-341-0078624'
p4965
aS'HAT-341-0082846'
p4966
aS'HAT-341-0083596'
p4967
aS'HAT-341-0084403'
p4968
aS'HAT-341-0099766'
p4969
aS'HAT-341-0104469'
p4970
aS'HAT-341-0145529'
p4971
aS'HAT-341-0216463'
p4972
aS'HAT-341-0393806'
p4973
aS'HAT-341-0421990'
p4974
aS'HAT-341-0735037'
p4975
aS'HAT-342-0000001'
p4976
aS'HAT-342-0000002'
p4977
aS'HAT-342-0000009'
p4978
aS'HAT-342-0000012'
p4979
aS'HAT-342-0000050'
p4980
aS'HAT-342-0000060'
p4981
aS'HAT-342-0000103'
p4982
aS'HAT-342-0000136'
p4983
aS'HAT-342-0000154'
p4984
aS'HAT-342-0000157'
p4985
aS'HAT-342-0000158'
p4986
aS'HAT-342-0000174'
p4987
aS'HAT-342-0000177'
p4988
aS'HAT-342-0000201'
p4989
aS'HAT-342-0000341'
p4990
aS'HAT-342-0000455'
p4991
aS'HAT-342-0000462'
p4992
aS'HAT-342-0000493'
p4993
aS'HAT-342-0000709'
p4994
aS'HAT-342-0000717'
p4995
aS'HAT-342-0001067'
p4996
aS'HAT-342-0001532'
p4997
aS'HAT-342-0001959'
p4998
aS'HAT-342-0002246'
p4999
aS'HAT-342-0002422'
p5000
aS'HAT-342-0002491'
p5001
aS'HAT-342-0002832'
p5002
aS'HAT-342-0003689'
p5003
aS'HAT-342-0004901'
p5004
aS'HAT-342-0007620'
p5005
aS'HAT-342-0011446'
p5006
aS'HAT-342-0013373'
p5007
aS'HAT-342-0013510'
p5008
aS'HAT-342-0015034'
p5009
aS'HAT-342-0018822'
p5010
aS'HAT-342-0020367'
p5011
aS'HAT-342-0030008'
p5012
aS'HAT-342-0036452'
p5013
aS'HAT-342-0036585'
p5014
aS'HAT-342-0058429'
p5015
aS'HAT-342-0160810'
p5016
aS'HAT-343-0001409'
p5017
aS'HAT-343-0002095'
p5018
aS'HAT-343-0002455'
p5019
aS'HAT-343-0004224'
p5020
aS'HAT-347-0000028'
p5021
aS'HAT-347-0003591'
p5022
aS'HAT-347-0010584'
p5023
aS'HAT-348-0000018'
p5024
aS'HAT-348-0000514'
p5025
aS'HAT-348-0000662'
p5026
aS'HAT-348-0002071'
p5027
aS'HAT-349-0001112'
p5028
aS'HAT-356-0000006'
p5029
aS'HAT-357-0000001'
p5030
aS'HAT-357-0000002'
p5031
aS'HAT-357-0000003'
p5032
aS'HAT-357-0000005'
p5033
aS'HAT-357-0000011'
p5034
aS'HAT-357-0000018'
p5035
aS'HAT-357-0000021'
p5036
aS'HAT-357-0000022'
p5037
aS'HAT-357-0000026'
p5038
aS'HAT-357-0000035'
p5039
aS'HAT-357-0000041'
p5040
aS'HAT-357-0000055'
p5041
aS'HAT-357-0000135'
p5042
aS'HAT-357-0000154'
p5043
aS'HAT-357-0000222'
p5044
aS'HAT-357-0000297'
p5045
aS'HAT-357-0000384'
p5046
aS'HAT-357-0002064'
p5047
aS'HAT-357-0003683'
p5048
aS'HAT-357-0005487'
p5049
aS'HAT-357-0005641'
p5050
aS'HAT-358-0000007'
p5051
aS'HAT-358-0000037'
p5052
aS'HAT-358-0000042'
p5053
aS'HAT-358-0000160'
p5054
aS'HAT-358-0000185'
p5055
aS'HAT-358-0000238'
p5056
aS'HAT-358-0000247'
p5057
aS'HAT-358-0000492'
p5058
aS'HAT-358-0000870'
p5059
aS'HAT-358-0001191'
p5060
aS'HAT-358-0001610'
p5061
aS'HAT-358-0001619'
p5062
aS'HAT-358-0001728'
p5063
aS'HAT-358-0002859'
p5064
aS'HAT-358-0002860'
p5065
aS'HAT-358-0002893'
p5066
aS'HAT-358-0003393'
p5067
aS'HAT-358-0004207'
p5068
aS'HAT-358-0004701'
p5069
aS'HAT-358-0006474'
p5070
aS'HAT-359-0000007'
p5071
aS'HAT-359-0000046'
p5072
aS'HAT-359-0000224'
p5073
aS'HAT-359-0000365'
p5074
aS'HAT-359-0000697'
p5075
aS'HAT-359-0000804'
p5076
aS'HAT-359-0000911'
p5077
aS'HAT-359-0000958'
p5078
aS'HAT-359-0001359'
p5079
aS'HAT-359-0001414'
p5080
aS'HAT-359-0003911'
p5081
aS'HAT-359-0004552'
p5082
aS'HAT-359-0005475'
p5083
aS'HAT-359-0005790'
p5084
aS'HAT-359-0006098'
p5085
aS'HAT-359-0007379'
p5086
aS'HAT-359-0007492'
p5087
aS'HAT-359-0008676'
p5088
aS'HAT-359-0008945'
p5089
aS'HAT-359-0024803'
p5090
aS'HAT-359-0025202'
p5091
aS'HAT-359-0036967'
p5092
aS'HAT-360-0000081'
p5093
aS'HAT-360-0000155'
p5094
aS'HAT-360-0016600'
p5095
aS'HAT-360-0029909'
p5096
aS'HAT-361-0000003'
p5097
aS'HAT-361-0000312'
p5098
aS'HAT-361-0000461'
p5099
aS'HAT-361-0000462'
p5100
aS'HAT-361-0000486'
p5101
aS'HAT-361-0000607'
p5102
aS'HAT-361-0000819'
p5103
aS'HAT-361-0000890'
p5104
aS'HAT-361-0001141'
p5105
aS'HAT-361-0001344'
p5106
aS'HAT-361-0001522'
p5107
aS'HAT-361-0002112'
p5108
aS'HAT-361-0002281'
p5109
aS'HAT-361-0002556'
p5110
aS'HAT-361-0003033'
p5111
aS'HAT-361-0003290'
p5112
aS'HAT-361-0003388'
p5113
aS'HAT-361-0004948'
p5114
aS'HAT-361-0006357'
p5115
aS'HAT-361-0007119'
p5116
aS'HAT-361-0008604'
p5117
aS'HAT-361-0011228'
p5118
aS'HAT-361-0011692'
p5119
aS'HAT-361-0013638'
p5120
aS'HAT-361-0017788'
p5121
aS'HAT-361-0021058'
p5122
aS'HAT-361-0024264'
p5123
aS'HAT-361-0024355'
p5124
aS'HAT-361-0025063'
p5125
aS'HAT-361-0026522'
p5126
aS'HAT-361-0027496'
p5127
aS'HAT-361-0031228'
p5128
aS'HAT-361-0033271'
p5129
aS'HAT-361-0034871'
p5130
aS'HAT-361-0039892'
p5131
aS'HAT-361-0041024'
p5132
aS'HAT-361-0042492'
p5133
aS'HAT-361-0043422'
p5134
aS'HAT-361-0046091'
p5135
aS'HAT-361-0046378'
p5136
aS'HAT-361-0047527'
p5137
aS'HAT-361-0048839'
p5138
aS'HAT-361-0050525'
p5139
aS'HAT-361-0051524'
p5140
aS'HAT-361-0051568'
p5141
aS'HAT-361-0052354'
p5142
aS'HAT-361-0054508'
p5143
aS'HAT-361-0054627'
p5144
aS'HAT-361-0058057'
p5145
aS'HAT-361-0059165'
p5146
aS'HAT-361-0060106'
p5147
aS'HAT-361-0060819'
p5148
aS'HAT-361-0062006'
p5149
aS'HAT-361-0062116'
p5150
aS'HAT-361-0062235'
p5151
aS'HAT-361-0062852'
p5152
aS'HAT-361-0065166'
p5153
aS'HAT-361-0065733'
p5154
aS'HAT-361-0066657'
p5155
aS'HAT-361-0067187'
p5156
aS'HAT-361-0067652'
p5157
aS'HAT-361-0069293'
p5158
aS'HAT-361-0070997'
p5159
aS'HAT-361-0071571'
p5160
aS'HAT-361-0072083'
p5161
aS'HAT-361-0074894'
p5162
aS'HAT-361-0151254'
p5163
aS'HAT-362-0000001'
p5164
aS'HAT-362-0000002'
p5165
aS'HAT-362-0000003'
p5166
aS'HAT-362-0000005'
p5167
aS'HAT-362-0000012'
p5168
aS'HAT-362-0000013'
p5169
aS'HAT-362-0000023'
p5170
aS'HAT-362-0000036'
p5171
aS'HAT-362-0000049'
p5172
aS'HAT-362-0000062'
p5173
aS'HAT-362-0000114'
p5174
aS'HAT-362-0000155'
p5175
aS'HAT-362-0000198'
p5176
aS'HAT-362-0000210'
p5177
aS'HAT-362-0000220'
p5178
aS'HAT-362-0000293'
p5179
aS'HAT-362-0000313'
p5180
aS'HAT-362-0000358'
p5181
aS'HAT-362-0000359'
p5182
aS'HAT-362-0000364'
p5183
aS'HAT-362-0000449'
p5184
aS'HAT-362-0000555'
p5185
aS'HAT-362-0000651'
p5186
aS'HAT-362-0000924'
p5187
aS'HAT-362-0000978'
p5188
aS'HAT-362-0001025'
p5189
aS'HAT-362-0001070'
p5190
aS'HAT-362-0001281'
p5191
aS'HAT-362-0001320'
p5192
aS'HAT-362-0001468'
p5193
aS'HAT-362-0001505'
p5194
aS'HAT-362-0001668'
p5195
aS'HAT-362-0001703'
p5196
aS'HAT-362-0001838'
p5197
aS'HAT-362-0002068'
p5198
aS'HAT-362-0002332'
p5199
aS'HAT-362-0002407'
p5200
aS'HAT-362-0002422'
p5201
aS'HAT-362-0003154'
p5202
aS'HAT-362-0003931'
p5203
aS'HAT-362-0004840'
p5204
aS'HAT-362-0005062'
p5205
aS'HAT-362-0005376'
p5206
aS'HAT-362-0005707'
p5207
aS'HAT-362-0006765'
p5208
aS'HAT-362-0007337'
p5209
aS'HAT-362-0008496'
p5210
aS'HAT-362-0008960'
p5211
aS'HAT-362-0009031'
p5212
aS'HAT-362-0009136'
p5213
aS'HAT-362-0009352'
p5214
aS'HAT-362-0009780'
p5215
aS'HAT-362-0010787'
p5216
aS'HAT-362-0012325'
p5217
aS'HAT-362-0012825'
p5218
aS'HAT-362-0014311'
p5219
aS'HAT-362-0016225'
p5220
aS'HAT-362-0019234'
p5221
aS'HAT-362-0019768'
p5222
aS'HAT-362-0021213'
p5223
aS'HAT-362-0023372'
p5224
aS'HAT-362-0027381'
p5225
aS'HAT-362-0032552'
p5226
aS'HAT-362-0034206'
p5227
aS'HAT-362-0043357'
p5228
aS'HAT-362-0044309'
p5229
aS'HAT-362-0045688'
p5230
aS'HAT-362-0053389'
p5231
aS'HAT-362-0063859'
p5232
aS'HAT-362-0622773'
p5233
aS'HAT-362-0840611'
p5234
aS'HAT-363-0000046'
p5235
aS'HAT-363-0000080'
p5236
aS'HAT-363-0000128'
p5237
aS'HAT-363-0000131'
p5238
aS'HAT-363-0000274'
p5239
aS'HAT-363-0002438'
p5240
aS'HAT-363-0003135'
p5241
aS'HAT-363-0006741'
p5242
aS'HAT-363-0010224'
p5243
aS'HAT-363-0010401'
p5244
aS'HAT-363-0012214'
p5245
aS'HAT-363-0012756'
p5246
aS'HAT-363-0033581'
p5247
aS'HAT-363-0035188'
p5248
aS'HAT-363-0040333'
p5249
aS'HAT-363-0333853'
p5250
aS'HAT-364-0000003'
p5251
aS'HAT-364-0000006'
p5252
aS'HAT-364-0000021'
p5253
aS'HAT-364-0000039'
p5254
aS'HAT-364-0000054'
p5255
aS'HAT-364-0000062'
p5256
aS'HAT-364-0000154'
p5257
aS'HAT-364-0000213'
p5258
aS'HAT-364-0000305'
p5259
aS'HAT-364-0000306'
p5260
aS'HAT-364-0001596'
p5261
aS'HAT-364-0003205'
p5262
aS'HAT-364-0005158'
p5263
aS'HAT-364-0007571'
p5264
aS'HAT-364-0018753'
p5265
aS'HAT-365-0000013'
p5266
aS'HAT-365-0000022'
p5267
aS'HAT-365-0000023'
p5268
aS'HAT-365-0000058'
p5269
aS'HAT-365-0000082'
p5270
aS'HAT-365-0000121'
p5271
aS'HAT-365-0000169'
p5272
aS'HAT-365-0000872'
p5273
aS'HAT-365-0000996'
p5274
aS'HAT-365-0002849'
p5275
aS'HAT-365-0003000'
p5276
aS'HAT-365-0003239'
p5277
aS'HAT-365-0023342'
p5278
aS'HAT-366-0000001'
p5279
aS'HAT-366-0000003'
p5280
aS'HAT-366-0000004'
p5281
aS'HAT-366-0000006'
p5282
aS'HAT-366-0000007'
p5283
aS'HAT-366-0000041'
p5284
aS'HAT-366-0000061'
p5285
aS'HAT-366-0000163'
p5286
aS'HAT-366-0000211'
p5287
aS'HAT-366-0000533'
p5288
aS'HAT-366-0000904'
p5289
aS'HAT-366-0001358'
p5290
aS'HAT-366-0001447'
p5291
aS'HAT-366-0002305'
p5292
aS'HAT-366-0002498'
p5293
aS'HAT-366-0003107'
p5294
aS'HAT-366-0004034'
p5295
aS'HAT-366-0004567'
p5296
aS'HAT-366-0004680'
p5297
aS'HAT-366-0004840'
p5298
aS'HAT-366-0007887'
p5299
aS'HAT-366-0009431'
p5300
aS'HAT-375-0000475'
p5301
aS'HAT-376-0000006'
p5302
aS'HAT-376-0000015'
p5303
aS'HAT-376-0000017'
p5304
aS'HAT-376-0000058'
p5305
aS'HAT-376-0000068'
p5306
aS'HAT-376-0000103'
p5307
aS'HAT-376-0000981'
p5308
aS'HAT-377-0000003'
p5309
aS'HAT-377-0000005'
p5310
aS'HAT-377-0000014'
p5311
aS'HAT-377-0000015'
p5312
aS'HAT-377-0000019'
p5313
aS'HAT-377-0000057'
p5314
aS'HAT-377-0000062'
p5315
aS'HAT-377-0000063'
p5316
aS'HAT-377-0000129'
p5317
aS'HAT-377-0000140'
p5318
aS'HAT-377-0000484'
p5319
aS'HAT-377-0000628'
p5320
aS'HAT-377-0001169'
p5321
aS'HAT-377-0005403'
p5322
aS'HAT-378-0000002'
p5323
aS'HAT-378-0000018'
p5324
aS'HAT-378-0000056'
p5325
aS'HAT-378-0000068'
p5326
aS'HAT-378-0000671'
p5327
aS'HAT-378-0001063'
p5328
aS'HAT-378-0001369'
p5329
aS'HAT-378-0004821'
p5330
aS'HAT-378-0004833'
p5331
aS'HAT-378-0011219'
p5332
aS'HAT-379-0004707'
p5333
aS'HAT-383-0000005'
p5334
aS'HAT-383-0000008'
p5335
aS'HAT-383-0000021'
p5336
aS'HAT-383-0000035'
p5337
aS'HAT-383-0000054'
p5338
aS'HAT-383-0000055'
p5339
aS'HAT-383-0000065'
p5340
aS'HAT-383-0000097'
p5341
aS'HAT-383-0000195'
p5342
aS'HAT-383-0000245'
p5343
aS'HAT-383-0000376'
p5344
aS'HAT-383-0000381'
p5345
aS'HAT-383-0000415'
p5346
aS'HAT-383-0000595'
p5347
aS'HAT-383-0000618'
p5348
aS'HAT-383-0000684'
p5349
aS'HAT-383-0001159'
p5350
aS'HAT-383-0001668'
p5351
aS'HAT-383-0001940'
p5352
aS'HAT-383-0002055'
p5353
aS'HAT-383-0002056'
p5354
aS'HAT-383-0002370'
p5355
aS'HAT-383-0003303'
p5356
aS'HAT-383-0004334'
p5357
aS'HAT-383-0005194'
p5358
aS'HAT-383-0005338'
p5359
aS'HAT-383-0005443'
p5360
aS'HAT-383-0007350'
p5361
aS'HAT-383-0008859'
p5362
aS'HAT-383-0009157'
p5363
aS'HAT-383-0009259'
p5364
aS'HAT-383-0013676'
p5365
aS'HAT-383-0019493'
p5366
aS'HAT-383-0022276'
p5367
aS'HAT-383-0035757'
p5368
aS'HAT-384-0000001'
p5369
aS'HAT-384-0000002'
p5370
aS'HAT-384-0000008'
p5371
aS'HAT-384-0000010'
p5372
aS'HAT-384-0000011'
p5373
aS'HAT-384-0000013'
p5374
aS'HAT-384-0000042'
p5375
aS'HAT-384-0000046'
p5376
aS'HAT-384-0000047'
p5377
aS'HAT-384-0000053'
p5378
aS'HAT-384-0000063'
p5379
aS'HAT-384-0000064'
p5380
aS'HAT-384-0000069'
p5381
aS'HAT-384-0000076'
p5382
aS'HAT-384-0000085'
p5383
aS'HAT-384-0000103'
p5384
aS'HAT-384-0000110'
p5385
aS'HAT-384-0000149'
p5386
aS'HAT-384-0000171'
p5387
aS'HAT-384-0000179'
p5388
aS'HAT-384-0000198'
p5389
aS'HAT-384-0000214'
p5390
aS'HAT-384-0000228'
p5391
aS'HAT-384-0000251'
p5392
aS'HAT-384-0000256'
p5393
aS'HAT-384-0000278'
p5394
aS'HAT-384-0000289'
p5395
aS'HAT-384-0000332'
p5396
aS'HAT-384-0000422'
p5397
aS'HAT-384-0000429'
p5398
aS'HAT-384-0000433'
p5399
aS'HAT-384-0000444'
p5400
aS'HAT-384-0000474'
p5401
aS'HAT-384-0000500'
p5402
aS'HAT-384-0000510'
p5403
aS'HAT-384-0000557'
p5404
aS'HAT-384-0000578'
p5405
aS'HAT-384-0000619'
p5406
aS'HAT-384-0000658'
p5407
aS'HAT-384-0000660'
p5408
aS'HAT-384-0000682'
p5409
aS'HAT-384-0000691'
p5410
aS'HAT-384-0000729'
p5411
aS'HAT-384-0000765'
p5412
aS'HAT-384-0000843'
p5413
aS'HAT-384-0000864'
p5414
aS'HAT-384-0000982'
p5415
aS'HAT-384-0001093'
p5416
aS'HAT-384-0001163'
p5417
aS'HAT-384-0001235'
p5418
aS'HAT-384-0001335'
p5419
aS'HAT-384-0001409'
p5420
aS'HAT-384-0001415'
p5421
aS'HAT-384-0001469'
p5422
aS'HAT-384-0001547'
p5423
aS'HAT-384-0001614'
p5424
aS'HAT-384-0001643'
p5425
aS'HAT-384-0001655'
p5426
aS'HAT-384-0001670'
p5427
aS'HAT-384-0001701'
p5428
aS'HAT-384-0001775'
p5429
aS'HAT-384-0001814'
p5430
aS'HAT-384-0001966'
p5431
aS'HAT-384-0002008'
p5432
aS'HAT-384-0002079'
p5433
aS'HAT-384-0002291'
p5434
aS'HAT-384-0002353'
p5435
aS'HAT-384-0002357'
p5436
aS'HAT-384-0002383'
p5437
aS'HAT-384-0002459'
p5438
aS'HAT-384-0002461'
p5439
aS'HAT-384-0002590'
p5440
aS'HAT-384-0002617'
p5441
aS'HAT-384-0002891'
p5442
aS'HAT-384-0003001'
p5443
aS'HAT-384-0003136'
p5444
aS'HAT-384-0003254'
p5445
aS'HAT-384-0003647'
p5446
aS'HAT-384-0003978'
p5447
aS'HAT-384-0004142'
p5448
aS'HAT-384-0004568'
p5449
aS'HAT-384-0004756'
p5450
aS'HAT-384-0004765'
p5451
aS'HAT-384-0005157'
p5452
aS'HAT-384-0007384'
p5453
aS'HAT-384-0007406'
p5454
aS'HAT-384-0008346'
p5455
aS'HAT-384-0008826'
p5456
aS'HAT-384-0009816'
p5457
aS'HAT-384-0009913'
p5458
aS'HAT-384-0010394'
p5459
aS'HAT-384-0010586'
p5460
aS'HAT-384-0011045'
p5461
aS'HAT-384-0012708'
p5462
aS'HAT-384-0012727'
p5463
aS'HAT-384-0015616'
p5464
aS'HAT-384-0016495'
p5465
aS'HAT-384-0016558'
p5466
aS'HAT-384-0020120'
p5467
aS'HAT-384-0021179'
p5468
aS'HAT-384-0022074'
p5469
aS'HAT-384-0023533'
p5470
aS'HAT-384-0024008'
p5471
aS'HAT-384-0024632'
p5472
aS'HAT-384-0026391'
p5473
aS'HAT-384-0026676'
p5474
aS'HAT-384-0027806'
p5475
aS'HAT-384-0030594'
p5476
aS'HAT-384-0032050'
p5477
aS'HAT-384-0033661'
p5478
aS'HAT-384-0033799'
p5479
aS'HAT-384-0035986'
p5480
aS'HAT-384-0036929'
p5481
aS'HAT-384-0038895'
p5482
aS'HAT-384-0041070'
p5483
aS'HAT-384-0044954'
p5484
aS'HAT-384-0047228'
p5485
aS'HAT-384-0048444'
p5486
aS'HAT-384-0051835'
p5487
aS'HAT-384-0056524'
p5488
aS'HAT-384-0061789'
p5489
aS'HAT-384-0067382'
p5490
aS'HAT-384-0069108'
p5491
aS'HAT-384-0075228'
p5492
aS'HAT-384-0381686'
p5493
aS'HAT-384-0578772'
p5494
aS'HAT-384-0689010'
p5495
aS'HAT-385-0000002'
p5496
aS'HAT-385-0000017'
p5497
aS'HAT-385-0000096'
p5498
aS'HAT-385-0000346'
p5499
aS'HAT-385-0000376'
p5500
aS'HAT-385-0000686'
p5501
aS'HAT-385-0001743'
p5502
aS'HAT-385-0002132'
p5503
aS'HAT-385-0003091'
p5504
aS'HAT-385-0004400'
p5505
aS'HAT-385-0004504'
p5506
aS'HAT-385-0004513'
p5507
aS'HAT-385-0004998'
p5508
aS'HAT-385-0034379'
p5509
aS'HAT-385-0071504'
p5510
aS'HAT-387-0000036'
p5511
aS'HAT-387-0000052'
p5512
aS'HAT-387-0000109'
p5513
aS'HAT-387-0000166'
p5514
aS'HAT-387-0000199'
p5515
aS'HAT-387-0000459'
p5516
aS'HAT-387-0000487'
p5517
aS'HAT-387-0000957'
p5518
aS'HAT-387-0001283'
p5519
aS'HAT-387-0001351'
p5520
aS'HAT-387-0001595'
p5521
aS'HAT-387-0001608'
p5522
aS'HAT-387-0001712'
p5523
aS'HAT-387-0001713'
p5524
aS'HAT-387-0001829'
p5525
aS'HAT-387-0002600'
p5526
aS'HAT-387-0002696'
p5527
aS'HAT-387-0003649'
p5528
aS'HAT-387-0003827'
p5529
aS'HAT-387-0003856'
p5530
aS'HAT-387-0004165'
p5531
aS'HAT-387-0004352'
p5532
aS'HAT-387-0005392'
p5533
aS'HAT-387-0005576'
p5534
aS'HAT-387-0006000'
p5535
aS'HAT-387-0006964'
p5536
aS'HAT-387-0007180'
p5537
aS'HAT-387-0007334'
p5538
aS'HAT-387-0007857'
p5539
aS'HAT-387-0010471'
p5540
aS'HAT-387-0012682'
p5541
aS'HAT-387-0018676'
p5542
aS'HAT-387-0027450'
p5543
aS'HAT-387-0027916'
p5544
aS'HAT-387-0030871'
p5545
aS'HAT-387-0032773'
p5546
aS'HAT-387-0046056'
p5547
aS'HAT-387-0092817'
p5548
aS'HAT-387-0182262'
p5549
aS'HAT-387-0550938'
p5550
aS'HAT-387-1635607'
p5551
aS'HAT-387-1879515'
p5552
aS'HAT-388-0000002'
p5553
aS'HAT-388-0000006'
p5554
aS'HAT-388-0000008'
p5555
aS'HAT-388-0000012'
p5556
aS'HAT-388-0000016'
p5557
aS'HAT-388-0000018'
p5558
aS'HAT-388-0000028'
p5559
aS'HAT-388-0000035'
p5560
aS'HAT-388-0000039'
p5561
aS'HAT-388-0000040'
p5562
aS'HAT-388-0000043'
p5563
aS'HAT-388-0000045'
p5564
aS'HAT-388-0000070'
p5565
aS'HAT-388-0000085'
p5566
aS'HAT-388-0000134'
p5567
aS'HAT-388-0000139'
p5568
aS'HAT-388-0000208'
p5569
aS'HAT-388-0000258'
p5570
aS'HAT-388-0000265'
p5571
aS'HAT-388-0000304'
p5572
aS'HAT-388-0000350'
p5573
aS'HAT-388-0000363'
p5574
aS'HAT-388-0000412'
p5575
aS'HAT-388-0000460'
p5576
aS'HAT-388-0000472'
p5577
aS'HAT-388-0000493'
p5578
aS'HAT-388-0000494'
p5579
aS'HAT-388-0000513'
p5580
aS'HAT-388-0000560'
p5581
aS'HAT-388-0000591'
p5582
aS'HAT-388-0000622'
p5583
aS'HAT-388-0000645'
p5584
aS'HAT-388-0000655'
p5585
aS'HAT-388-0000708'
p5586
aS'HAT-388-0000778'
p5587
aS'HAT-388-0000789'
p5588
aS'HAT-388-0000798'
p5589
aS'HAT-388-0000830'
p5590
aS'HAT-388-0000880'
p5591
aS'HAT-388-0000906'
p5592
aS'HAT-388-0000950'
p5593
aS'HAT-388-0001029'
p5594
aS'HAT-388-0001032'
p5595
aS'HAT-388-0001073'
p5596
aS'HAT-388-0001351'
p5597
aS'HAT-388-0001380'
p5598
aS'HAT-388-0001490'
p5599
aS'HAT-388-0001503'
p5600
aS'HAT-388-0001656'
p5601
aS'HAT-388-0001723'
p5602
aS'HAT-388-0002078'
p5603
aS'HAT-388-0002161'
p5604
aS'HAT-388-0002277'
p5605
aS'HAT-388-0002536'
p5606
aS'HAT-388-0002625'
p5607
aS'HAT-388-0002903'
p5608
aS'HAT-388-0002983'
p5609
aS'HAT-388-0003187'
p5610
aS'HAT-388-0003195'
p5611
aS'HAT-388-0003278'
p5612
aS'HAT-388-0003417'
p5613
aS'HAT-388-0003599'
p5614
aS'HAT-388-0003761'
p5615
aS'HAT-388-0003807'
p5616
aS'HAT-388-0003962'
p5617
aS'HAT-388-0004087'
p5618
aS'HAT-388-0005542'
p5619
aS'HAT-388-0006304'
p5620
aS'HAT-388-0007112'
p5621
aS'HAT-388-0007500'
p5622
aS'HAT-388-0008116'
p5623
aS'HAT-388-0009084'
p5624
aS'HAT-388-0009698'
p5625
aS'HAT-388-0009720'
p5626
aS'HAT-388-0010170'
p5627
aS'HAT-388-0012071'
p5628
aS'HAT-388-0012099'
p5629
aS'HAT-388-0012832'
p5630
aS'HAT-388-0015830'
p5631
aS'HAT-388-0017137'
p5632
aS'HAT-388-0019082'
p5633
aS'HAT-388-0024120'
p5634
aS'HAT-388-0024228'
p5635
aS'HAT-388-0027964'
p5636
aS'HAT-388-0029042'
p5637
aS'HAT-388-0030270'
p5638
aS'HAT-388-0042684'
p5639
aS'HAT-388-0045277'
p5640
aS'HAT-388-0047305'
p5641
aS'HAT-388-0052348'
p5642
aS'HAT-388-0060110'
p5643
aS'HAT-388-0062195'
p5644
aS'HAT-388-0065652'
p5645
aS'HAT-388-0070888'
p5646
aS'HAT-388-0081216'
p5647
aS'HAT-388-0087704'
p5648
aS'HAT-388-1362197'
p5649
aS'HAT-389-0000022'
p5650
aS'HAT-389-0000023'
p5651
aS'HAT-389-0000059'
p5652
aS'HAT-389-0000163'
p5653
aS'HAT-389-0000185'
p5654
aS'HAT-389-0000201'
p5655
aS'HAT-389-0000203'
p5656
aS'HAT-389-0000327'
p5657
aS'HAT-389-0000514'
p5658
aS'HAT-389-0000560'
p5659
aS'HAT-389-0000581'
p5660
aS'HAT-389-0000788'
p5661
aS'HAT-389-0000797'
p5662
aS'HAT-389-0000867'
p5663
aS'HAT-389-0001014'
p5664
aS'HAT-389-0001234'
p5665
aS'HAT-389-0001394'
p5666
aS'HAT-389-0001599'
p5667
aS'HAT-389-0001654'
p5668
aS'HAT-389-0001827'
p5669
aS'HAT-389-0003616'
p5670
aS'HAT-389-0004809'
p5671
aS'HAT-389-0005677'
p5672
aS'HAT-389-0006985'
p5673
aS'HAT-389-0007006'
p5674
aS'HAT-389-0009086'
p5675
aS'HAT-389-0009770'
p5676
aS'HAT-389-0013895'
p5677
aS'HAT-389-0021354'
p5678
aS'HAT-389-0024556'
p5679
aS'HAT-389-0028206'
p5680
aS'HAT-389-0033793'
p5681
aS'HAT-389-0036424'
p5682
aS'HAT-389-0041158'
p5683
aS'HAT-389-0043248'
p5684
aS'HAT-389-0044373'
p5685
aS'HAT-389-0059278'
p5686
aS'HAT-389-0148644'
p5687
aS'HAT-389-0399058'
p5688
aS'HAT-390-0000019'
p5689
aS'HAT-390-0000020'
p5690
aS'HAT-390-0000164'
p5691
aS'HAT-390-0000232'
p5692
aS'HAT-390-0000311'
p5693
aS'HAT-390-0000419'
p5694
aS'HAT-390-0000599'
p5695
aS'HAT-390-0000779'
p5696
aS'HAT-390-0001373'
p5697
aS'HAT-390-0001639'
p5698
aS'HAT-390-0002823'
p5699
aS'HAT-390-0007615'
p5700
aS'HAT-390-0018751'
p5701
aS'HAT-390-0376980'
p5702
aS'HAT-391-0000783'
p5703
aS'HAT-391-0003963'
p5704
aS'HAT-395-0000466'
p5705
aS'HAT-405-0004454'
p5706
aS'HAT-406-0000014'
p5707
aS'HAT-406-0000106'
p5708
aS'HAT-406-0000114'
p5709
aS'HAT-406-0000216'
p5710
aS'HAT-406-0000237'
p5711
aS'HAT-407-0001724'
p5712
aS'HAT-409-0000008'
p5713
aS'HAT-409-0000173'
p5714
aS'HAT-409-0000474'
p5715
aS'HAT-409-0005757'
p5716
aS'HAT-409-0010293'
p5717
aS'HAT-410-0000003'
p5718
aS'HAT-410-0000120'
p5719
aS'HAT-410-0000137'
p5720
aS'HAT-410-0000160'
p5721
aS'HAT-410-0000177'
p5722
aS'HAT-410-0001153'
p5723
aS'HAT-410-0004994'
p5724
aS'HAT-410-0008030'
p5725
aS'HAT-410-0022136'
p5726
aS'HAT-410-0029110'
p5727
aS'HAT-410-0029771'
p5728
aS'HAT-410-0031197'
p5729
aS'HAT-410-0047550'
p5730
aS'HAT-410-0049781'
p5731
aS'HAT-410-0054226'
p5732
aS'HAT-410-0339223'
p5733
aS'HAT-411-0000016'
p5734
aS'HAT-411-0000202'
p5735
aS'HAT-411-0000217'
p5736
aS'HAT-411-0000270'
p5737
aS'HAT-411-0000317'
p5738
aS'HAT-411-0000896'
p5739
aS'HAT-411-0014340'
p5740
aS'HAT-411-0021160'
p5741
aS'HAT-411-0051407'
p5742
aS'HAT-412-0000046'
p5743
aS'HAT-412-0000050'
p5744
aS'HAT-412-0000200'
p5745
aS'HAT-412-0000293'
p5746
aS'HAT-412-0000307'
p5747
aS'HAT-412-0000308'
p5748
aS'HAT-412-0000566'
p5749
aS'HAT-412-0003630'
p5750
aS'HAT-412-0003700'
p5751
aS'HAT-412-0010180'
p5752
aS'HAT-413-0000001'
p5753
aS'HAT-413-0000026'
p5754
aS'HAT-413-0000332'
p5755
aS'HAT-413-0000378'
p5756
aS'HAT-413-0000647'
p5757
aS'HAT-413-0006980'
p5758
aS'HAT-413-0009106'
p5759
aS'HAT-413-0011708'
p5760
aS'HAT-413-0014888'
p5761
aS'HAT-413-0016278'
p5762
aS'HAT-413-0027582'
p5763
aS'HAT-414-0000053'
p5764
aS'HAT-414-0001721'
p5765
aS'HAT-414-0004209'
p5766
aS'HAT-414-0006143'
p5767
aS'HAT-414-0013332'
p5768
aS'HAT-414-0014999'
p5769
aS'HAT-424-0000002'
p5770
aS'HAT-424-0007906'
p5771
aS'HAT-425-0000002'
p5772
aS'HAT-425-0000005'
p5773
aS'HAT-425-0000009'
p5774
aS'HAT-425-0003533'
p5775
aS'HAT-426-0000028'
p5776
aS'HAT-426-0001337'
p5777
aS'HAT-426-0003716'
p5778
aS'HAT-426-0005010'
p5779
aS'HAT-426-0007815'
p5780
aS'HAT-426-0010500'
p5781
aS'HAT-430-0000021'
p5782
aS'HAT-430-0000258'
p5783
aS'HAT-430-0008991'
p5784
aS'HAT-431-0000001'
p5785
aS'HAT-431-0000003'
p5786
aS'HAT-431-0000006'
p5787
aS'HAT-431-0000010'
p5788
aS'HAT-431-0000011'
p5789
aS'HAT-431-0000033'
p5790
aS'HAT-431-0000078'
p5791
aS'HAT-431-0000094'
p5792
aS'HAT-431-0000107'
p5793
aS'HAT-431-0000117'
p5794
aS'HAT-431-0000384'
p5795
aS'HAT-431-0000640'
p5796
aS'HAT-431-0000655'
p5797
aS'HAT-431-0000811'
p5798
aS'HAT-431-0000961'
p5799
aS'HAT-431-0001043'
p5800
aS'HAT-431-0001206'
p5801
aS'HAT-431-0001365'
p5802
aS'HAT-431-0001587'
p5803
aS'HAT-431-0002193'
p5804
aS'HAT-431-0002253'
p5805
aS'HAT-431-0002277'
p5806
aS'HAT-431-0002754'
p5807
aS'HAT-431-0003680'
p5808
aS'HAT-431-0004642'
p5809
aS'HAT-431-0005861'
p5810
aS'HAT-431-0006463'
p5811
aS'HAT-431-0008276'
p5812
aS'HAT-431-0010191'
p5813
aS'HAT-431-0011832'
p5814
aS'HAT-431-0016058'
p5815
aS'HAT-431-0017178'
p5816
aS'HAT-431-0019817'
p5817
aS'HAT-431-0021383'
p5818
aS'HAT-432-0000006'
p5819
aS'HAT-432-0000012'
p5820
aS'HAT-432-0000013'
p5821
aS'HAT-432-0000022'
p5822
aS'HAT-432-0000034'
p5823
aS'HAT-432-0000050'
p5824
aS'HAT-432-0000073'
p5825
aS'HAT-432-0000145'
p5826
aS'HAT-432-0000155'
p5827
aS'HAT-432-0000156'
p5828
aS'HAT-432-0000174'
p5829
aS'HAT-432-0000191'
p5830
aS'HAT-432-0000199'
p5831
aS'HAT-432-0000349'
p5832
aS'HAT-432-0000436'
p5833
aS'HAT-432-0000445'
p5834
aS'HAT-432-0000486'
p5835
aS'HAT-432-0000593'
p5836
aS'HAT-432-0000718'
p5837
aS'HAT-432-0000742'
p5838
aS'HAT-432-0000748'
p5839
aS'HAT-432-0000834'
p5840
aS'HAT-432-0001152'
p5841
aS'HAT-432-0001272'
p5842
aS'HAT-432-0001286'
p5843
aS'HAT-432-0001287'
p5844
aS'HAT-432-0001406'
p5845
aS'HAT-432-0001430'
p5846
aS'HAT-432-0001448'
p5847
aS'HAT-432-0001520'
p5848
aS'HAT-432-0001522'
p5849
aS'HAT-432-0001922'
p5850
aS'HAT-432-0002096'
p5851
aS'HAT-432-0002153'
p5852
aS'HAT-432-0002160'
p5853
aS'HAT-432-0002210'
p5854
aS'HAT-432-0002218'
p5855
aS'HAT-432-0002264'
p5856
aS'HAT-432-0002269'
p5857
aS'HAT-432-0002454'
p5858
aS'HAT-432-0002466'
p5859
aS'HAT-432-0002534'
p5860
aS'HAT-432-0002757'
p5861
aS'HAT-432-0002978'
p5862
aS'HAT-432-0003339'
p5863
aS'HAT-432-0003530'
p5864
aS'HAT-432-0003659'
p5865
aS'HAT-432-0003680'
p5866
aS'HAT-432-0003933'
p5867
aS'HAT-432-0003958'
p5868
aS'HAT-432-0004146'
p5869
aS'HAT-432-0004227'
p5870
aS'HAT-432-0004229'
p5871
aS'HAT-432-0004261'
p5872
aS'HAT-432-0004454'
p5873
aS'HAT-432-0005118'
p5874
aS'HAT-432-0005281'
p5875
aS'HAT-432-0006954'
p5876
aS'HAT-432-0007123'
p5877
aS'HAT-432-0007432'
p5878
aS'HAT-432-0008005'
p5879
aS'HAT-432-0008540'
p5880
aS'HAT-432-0008642'
p5881
aS'HAT-432-0011622'
p5882
aS'HAT-432-0011712'
p5883
aS'HAT-432-0012695'
p5884
aS'HAT-432-0013351'
p5885
aS'HAT-432-0014070'
p5886
aS'HAT-432-0017041'
p5887
aS'HAT-432-0017463'
p5888
aS'HAT-432-0018087'
p5889
aS'HAT-432-0018936'
p5890
aS'HAT-432-0021108'
p5891
aS'HAT-432-0022815'
p5892
aS'HAT-432-0028324'
p5893
aS'HAT-432-0028672'
p5894
aS'HAT-432-0032770'
p5895
aS'HAT-432-0034152'
p5896
aS'HAT-432-0038338'
p5897
aS'HAT-432-0046153'
p5898
aS'HAT-432-0064603'
p5899
aS'HAT-432-0069227'
p5900
aS'HAT-432-0078092'
p5901
aS'HAT-432-0181688'
p5902
aS'HAT-433-0000029'
p5903
aS'HAT-433-0000032'
p5904
aS'HAT-433-0000322'
p5905
aS'HAT-433-0000781'
p5906
aS'HAT-433-0001459'
p5907
aS'HAT-433-0001760'
p5908
aS'HAT-433-0006594'
p5909
aS'HAT-433-0032824'
p5910
aS'HAT-433-0037239'
p5911
aS'HAT-433-0149246'
p5912
aS'HAT-433-1782301'
p5913
aS'HAT-435-0000008'
p5914
aS'HAT-435-0000229'
p5915
aS'HAT-435-0000448'
p5916
aS'HAT-435-0002126'
p5917
aS'HAT-435-0002147'
p5918
aS'HAT-435-0002424'
p5919
aS'HAT-435-0006298'
p5920
aS'HAT-435-0037669'
p5921
aS'HAT-435-0363367'
p5922
aS'HAT-436-0000019'
p5923
aS'HAT-436-0000028'
p5924
aS'HAT-436-0000036'
p5925
aS'HAT-436-0000043'
p5926
aS'HAT-436-0000133'
p5927
aS'HAT-436-0000200'
p5928
aS'HAT-436-0000220'
p5929
aS'HAT-436-0000241'
p5930
aS'HAT-436-0000249'
p5931
aS'HAT-436-0000250'
p5932
aS'HAT-436-0000317'
p5933
aS'HAT-436-0000380'
p5934
aS'HAT-436-0000480'
p5935
aS'HAT-436-0000540'
p5936
aS'HAT-436-0001112'
p5937
aS'HAT-436-0001407'
p5938
aS'HAT-436-0001727'
p5939
aS'HAT-436-0002409'
p5940
aS'HAT-436-0002581'
p5941
aS'HAT-436-0003411'
p5942
aS'HAT-436-0004458'
p5943
aS'HAT-436-0007286'
p5944
aS'HAT-436-0013931'
p5945
aS'HAT-436-0027107'
p5946
aS'HAT-436-0036304'
p5947
aS'HAT-436-0058442'
p5948
aS'HAT-436-0061804'
p5949
aS'HAT-437-0000003'
p5950
aS'HAT-437-0000005'
p5951
aS'HAT-437-0000257'
p5952
aS'HAT-437-0000902'
p5953
aS'HAT-437-0001410'
p5954
aS'HAT-437-0093359'
p5955
aS'HAT-438-0000343'
p5956
aS'HAT-438-0000748'
p5957
aS'HAT-438-0023430'
p5958
a.