(dp1
cnumpy.core.multiarray
scalar
p2
(cnumpy
dtype
p3
(S'S3'
I0
I1
tRp4
(I3
S'|'
NNNI3
I1
I0
tbS'216'
tRp5
g2
(g3
(S'S40'
I0
I1
tRp6
(I3
S'|'
NNNI40
I1
I0
tbS'/nfs/phn1/ar2/EDRIVE/EDRIVE1/4KAP_LC/216'
tRp7
sg2
(g3
(S'S3'
I0
I1
tRp8
(I3
S'|'
NNNI3
I1
I0
tbS'214'
tRp9
g2
(g3
(S'S37'
I0
I1
tRp10
(I3
S'|'
NNNI37
I1
I0
tbS'/nfs/phn15/ar0/H/4KRED/AP/4KAP_LC/214'
tRp11
sg2
(g3
(S'S3'
I0
I1
tRp12
(I3
S'|'
NNNI3
I1
I0
tbS'215'
tRp13
g2
(g3
(S'S40'
I0
I1
tRp14
(I3
S'|'
NNNI40
I1
I0
tbS'/nfs/phn1/ar2/EDRIVE/EDRIVE1/4KAP_LC/215'
tRp15
sg2
(g3
(S'S3'
I0
I1
tRp16
(I3
S'|'
NNNI3
I1
I0
tbS'212'
tRp17
g2
(g3
(S'S35'
I0
I1
tRp18
(I3
S'|'
NNNI35
I1
I0
tbS'/nfs/phn1/ar2/EDRIVE/EDRIVE3/LC/212'
tRp19
sg2
(g3
(S'S3'
I0
I1
tRp20
(I3
S'|'
NNNI3
I1
I0
tbS'213'
tRp21
g2
(g3
(S'S36'
I0
I1
tRp22
(I3
S'|'
NNNI36
I1
I0
tbS'/nfs/phn1/ar2/EDRIVE/EDRIVE51/LC/213'
tRp23
sg2
(g3
(S'S3'
I0
I1
tRp24
(I3
S'|'
NNNI3
I1
I0
tbS'210'
tRp25
g2
(g3
(S'S50'
I0
I1
tRp26
(I3
S'|'
NNNI50
I1
I0
tbS'/nfs/phn1/ar0/phn5_save/ar0/H/4KRED/AP/4KAP_LC/210'
tRp27
sg2
(g3
(S'S3'
I0
I1
tRp28
(I3
S'|'
NNNI3
I1
I0
tbS'211'
tRp29
g2
(g3
(S'S35'
I0
I1
tRp30
(I3
S'|'
NNNI35
I1
I0
tbS'/nfs/phn1/ar2/EDRIVE/EDRIVE3/LC/211'
tRp31
sg2
(g3
(S'S3'
I0
I1
tRp32
(I3
S'|'
NNNI3
I1
I0
tbS'093'
tRp33
g2
(g3
(S'S33'
I0
I1
tRp34
(I3
S'|'
NNNI33
I1
I0
tbS'/nfs/phn7/ar1/H/4KRED/4KAP_LC/093'
tRp35
sg2
(g3
(S'S3'
I0
I1
tRp36
(I3
S'|'
NNNI3
I1
I0
tbS'095'
tRp37
g2
(g3
(S'S40'
I0
I1
tRp38
(I3
S'|'
NNNI40
I1
I0
tbS'/nfs/phn1/ar2/EDRIVE/EDRIVE1/4KAP_LC/095'
tRp39
sg2
(g3
(S'S3'
I0
I1
tRp40
(I3
S'|'
NNNI3
I1
I0
tbS'096'
tRp41
g2
(g3
(S'S25'
I0
I1
tRp42
(I3
S'|'
NNNI25
I1
I0
tbS'/nfs/phn9/ar0/4KAP_LC/096'
tRp43
sg2
(g3
(S'S3'
I0
I1
tRp44
(I3
S'|'
NNNI3
I1
I0
tbS'219'
tRp45
g2
(g3
(S'S34'
I0
I1
tRp46
(I3
S'|'
NNNI34
I1
I0
tbS'/nfs/phn15/ar1/H/4KRED/4KAP_LC/219'
tRp47
sg2
(g3
(S'S3'
I0
I1
tRp48
(I3
S'|'
NNNI3
I1
I0
tbS'133'
tRp49
g2
(g3
(S'S35'
I0
I1
tRp50
(I3
S'|'
NNNI35
I1
I0
tbS'/nfs/phn1/ar2/EDRIVE/EDRIVE3/LC/133'
tRp51
sg2
(g3
(S'S3'
I0
I1
tRp52
(I3
S'|'
NNNI3
I1
I0
tbS'132'
tRp53
g2
(g3
(S'S36'
I0
I1
tRp54
(I3
S'|'
NNNI36
I1
I0
tbS'/nfs/phn1/ar2/EDRIVE/EDRIVE51/LC/132'
tRp55
sg2
(g3
(S'S3'
I0
I1
tRp56
(I3
S'|'
NNNI3
I1
I0
tbS'136'
tRp57
g2
(g3
(S'S36'
I0
I1
tRp58
(I3
S'|'
NNNI36
I1
I0
tbS'/nfs/phn1/ar2/EDRIVE/EDRIVE51/LC/136'
tRp59
sg2
(g3
(S'S3'
I0
I1
tRp60
(I3
S'|'
NNNI3
I1
I0
tbS'135'
tRp61
g2
(g3
(S'S35'
I0
I1
tRp62
(I3
S'|'
NNNI35
I1
I0
tbS'/nfs/phn1/ar2/EDRIVE/EDRIVE3/LC/135'
tRp63
sg2
(g3
(S'S3'
I0
I1
tRp64
(I3
S'|'
NNNI3
I1
I0
tbS'134'
tRp65
g2
(g3
(S'S36'
I0
I1
tRp66
(I3
S'|'
NNNI36
I1
I0
tbS'/nfs/phn1/ar2/EDRIVE/EDRIVE51/LC/134'
tRp67
sg2
(g3
(S'S3'
I0
I1
tRp68
(I3
S'|'
NNNI3
I1
I0
tbS'138'
tRp69
g2
(g3
(S'S35'
I0
I1
tRp70
(I3
S'|'
NNNI35
I1
I0
tbS'/nfs/phn1/ar2/EDRIVE/EDRIVE3/LC/138'
tRp71
sg2
(g3
(S'S3'
I0
I1
tRp72
(I3
S'|'
NNNI3
I1
I0
tbS'222'
tRp73
g2
(g3
(S'S36'
I0
I1
tRp74
(I3
S'|'
NNNI36
I1
I0
tbS'/nfs/phn1/ar2/EDRIVE/EDRIVE51/LC/222'
tRp75
sg2
(g3
(S'S3'
I0
I1
tRp76
(I3
S'|'
NNNI3
I1
I0
tbS'288'
tRp77
g2
(g3
(S'S40'
I0
I1
tRp78
(I3
S'|'
NNNI40
I1
I0
tbS'/nfs/phn1/ar2/EDRIVE/EDRIVE1/4KAP_LC/288'
tRp79
sg2
(g3
(S'S3'
I0
I1
tRp80
(I3
S'|'
NNNI3
I1
I0
tbS'221'
tRp81
g2
(g3
(S'S35'
I0
I1
tRp82
(I3
S'|'
NNNI35
I1
I0
tbS'/nfs/phn1/ar2/EDRIVE/EDRIVE3/LC/221'
tRp83
sg2
(g3
(S'S3'
I0
I1
tRp84
(I3
S'|'
NNNI3
I1
I0
tbS'342'
tRp85
g2
(g3
(S'S52'
I0
I1
tRp86
(I3
S'|'
NNNI52
I1
I0
tbS'/nfs/phn1/ar0/phn5_save/ar0/H/4KRED/AP/4KAP_LC/342.2'
tRp87
sg2
(g3
(S'S3'
I0
I1
tRp88
(I3
S'|'
NNNI3
I1
I0
tbS'220'
tRp89
g2
(g3
(S'S36'
I0
I1
tRp90
(I3
S'|'
NNNI36
I1
I0
tbS'/nfs/phn1/ar2/EDRIVE/EDRIVE51/LC/220'
tRp91
sg2
(g3
(S'S3'
I0
I1
tRp92
(I3
S'|'
NNNI3
I1
I0
tbS'285'
tRp93
g2
(g3
(S'S39'
I0
I1
tRp94
(I3
S'|'
NNNI39
I1
I0
tbS'/nfs/phn15/ar0/H/4KRED/AP/4KAP_LC/285_2'
tRp95
sg2
(g3
(S'S3'
I0
I1
tRp96
(I3
S'|'
NNNI3
I1
I0
tbS'284'
tRp97
g2
(g3
(S'S37'
I0
I1
tRp98
(I3
S'|'
NNNI37
I1
I0
tbS'/nfs/phn15/ar0/H/4KRED/AP/4KAP_LC/284'
tRp99
sg2
(g3
(S'S3'
I0
I1
tRp100
(I3
S'|'
NNNI3
I1
I0
tbS'287'
tRp101
g2
(g3
(S'S34'
I0
I1
tRp102
(I3
S'|'
NNNI34
I1
I0
tbS'/nfs/phn15/ar1/H/4KRED/4KAP_LC/287'
tRp103
sg2
(g3
(S'S3'
I0
I1
tRp104
(I3
S'|'
NNNI3
I1
I0
tbS'286'
tRp105
g2
(g3
(S'S34'
I0
I1
tRp106
(I3
S'|'
NNNI34
I1
I0
tbS'/nfs/phn15/ar1/H/4KRED/4KAP_LC/286'
tRp107
sg2
(g3
(S'S3'
I0
I1
tRp108
(I3
S'|'
NNNI3
I1
I0
tbS'123'
tRp109
g2
(g3
(S'S35'
I0
I1
tRp110
(I3
S'|'
NNNI35
I1
I0
tbS'/nfs/phn1/ar2/EDRIVE/EDRIVE3/LC/123'
tRp111
sg2
(g3
(S'S3'
I0
I1
tRp112
(I3
S'|'
NNNI3
I1
I0
tbS'124'
tRp113
g2
(g3
(S'S35'
I0
I1
tRp114
(I3
S'|'
NNNI35
I1
I0
tbS'/nfs/phn1/ar2/EDRIVE/EDRIVE3/LC/124'
tRp115
sg2
(g3
(S'S3'
I0
I1
tRp116
(I3
S'|'
NNNI3
I1
I0
tbS'125'
tRp117
g2
(g3
(S'S36'
I0
I1
tRp118
(I3
S'|'
NNNI36
I1
I0
tbS'/nfs/phn1/ar2/EDRIVE/EDRIVE51/LC/125'
tRp119
sg2
(g3
(S'S3'
I0
I1
tRp120
(I3
S'|'
NNNI3
I1
I0
tbS'126'
tRp121
g2
(g3
(S'S36'
I0
I1
tRp122
(I3
S'|'
NNNI36
I1
I0
tbS'/nfs/phn1/ar2/EDRIVE/EDRIVE51/LC/126'
tRp123
sg2
(g3
(S'S3'
I0
I1
tRp124
(I3
S'|'
NNNI3
I1
I0
tbS'127'
tRp125
g2
(g3
(S'S35'
I0
I1
tRp126
(I3
S'|'
NNNI35
I1
I0
tbS'/nfs/phn1/ar2/EDRIVE/EDRIVE3/LC/127'
tRp127
sg2
(g3
(S'S3'
I0
I1
tRp128
(I3
S'|'
NNNI3
I1
I0
tbS'128'
tRp129
g2
(g3
(S'S36'
I0
I1
tRp130
(I3
S'|'
NNNI36
I1
I0
tbS'/nfs/phn1/ar2/EDRIVE/EDRIVE51/LC/128'
tRp131
sg2
(g3
(S'S3'
I0
I1
tRp132
(I3
S'|'
NNNI3
I1
I0
tbS'269'
tRp133
g2
(g3
(S'S37'
I0
I1
tRp134
(I3
S'|'
NNNI37
I1
I0
tbS'/nfs/phn15/ar0/H/4KRED/AP/4KAP_LC/269'
tRp135
sg2
(g3
(S'S3'
I0
I1
tRp136
(I3
S'|'
NNNI3
I1
I0
tbS'268'
tRp137
g2
(g3
(S'S34'
I0
I1
tRp138
(I3
S'|'
NNNI34
I1
I0
tbS'/nfs/phn15/ar1/H/4KRED/4KAP_LC/268'
tRp139
sg2
(g3
(S'S3'
I0
I1
tRp140
(I3
S'|'
NNNI3
I1
I0
tbS'378'
tRp141
g2
(g3
(S'S40'
I0
I1
tRp142
(I3
S'|'
NNNI40
I1
I0
tbS'/nfs/phn1/ar2/EDRIVE/EDRIVE1/4KAP_LC/378'
tRp143
sg2
(g3
(S'S3'
I0
I1
tRp144
(I3
S'|'
NNNI3
I1
I0
tbS'416'
tRp145
g2
(g3
(S'S36'
I0
I1
tRp146
(I3
S'|'
NNNI36
I1
I0
tbS'/nfs/phn1/ar2/EDRIVE/EDRIVE51/LC/416'
tRp147
sg2
(g3
(S'S3'
I0
I1
tRp148
(I3
S'|'
NNNI3
I1
I0
tbS'294'
tRp149
g2
(g3
(S'S40'
I0
I1
tRp150
(I3
S'|'
NNNI40
I1
I0
tbS'/nfs/phn1/ar2/EDRIVE/EDRIVE1/4KAP_LC/294'
tRp151
sg2
(g3
(S'S3'
I0
I1
tRp152
(I3
S'|'
NNNI3
I1
I0
tbS'292'
tRp153
g2
(g3
(S'S38'
I0
I1
tRp154
(I3
S'|'
NNNI38
I1
I0
tbS'/nfs/phn15/ar0/H/2KRED/AP/2KRED_LC/292'
tRp155
sg2
(g3
(S'S3'
I0
I1
tRp156
(I3
S'|'
NNNI3
I1
I0
tbS'293'
tRp157
g2
(g3
(S'S40'
I0
I1
tRp158
(I3
S'|'
NNNI40
I1
I0
tbS'/nfs/phn1/ar2/EDRIVE/EDRIVE1/4KAP_LC/293'
tRp159
sg2
(g3
(S'S3'
I0
I1
tRp160
(I3
S'|'
NNNI3
I1
I0
tbS'377'
tRp161
g2
(g3
(S'S40'
I0
I1
tRp162
(I3
S'|'
NNNI40
I1
I0
tbS'/nfs/phn1/ar2/EDRIVE/EDRIVE1/4KAP_LC/377'
tRp163
sg2
(g3
(S'S3'
I0
I1
tRp164
(I3
S'|'
NNNI3
I1
I0
tbS'376'
tRp165
g2
(g3
(S'S37'
I0
I1
tRp166
(I3
S'|'
NNNI37
I1
I0
tbS'/nfs/phn15/ar0/H/4KRED/AP/4KAP_LC/376'
tRp167
sg2
(g3
(S'S3'
I0
I1
tRp168
(I3
S'|'
NNNI3
I1
I0
tbS'318'
tRp169
g2
(g3
(S'S40'
I0
I1
tRp170
(I3
S'|'
NNNI40
I1
I0
tbS'/nfs/phn1/ar2/EDRIVE/EDRIVE1/4KAP_LC/318'
tRp171
sg2
(g3
(S'S3'
I0
I1
tRp172
(I3
S'|'
NNNI3
I1
I0
tbS'199'
tRp173
g2
(g3
(S'S35'
I0
I1
tRp174
(I3
S'|'
NNNI35
I1
I0
tbS'/nfs/phn1/ar2/EDRIVE/EDRIVE3/LC/199'
tRp175
sg2
(g3
(S'S3'
I0
I1
tRp176
(I3
S'|'
NNNI3
I1
I0
tbS'198'
tRp177
g2
(g3
(S'S36'
I0
I1
tRp178
(I3
S'|'
NNNI36
I1
I0
tbS'/nfs/phn1/ar2/EDRIVE/EDRIVE51/LC/198'
tRp179
sg2
(g3
(S'S3'
I0
I1
tRp180
(I3
S'|'
NNNI3
I1
I0
tbS'195'
tRp181
g2
(g3
(S'S35'
I0
I1
tRp182
(I3
S'|'
NNNI35
I1
I0
tbS'/nfs/phn1/ar2/EDRIVE/EDRIVE3/LC/195'
tRp183
sg2
(g3
(S'S3'
I0
I1
tRp184
(I3
S'|'
NNNI3
I1
I0
tbS'194'
tRp185
g2
(g3
(S'S36'
I0
I1
tRp186
(I3
S'|'
NNNI36
I1
I0
tbS'/nfs/phn1/ar2/EDRIVE/EDRIVE51/LC/194'
tRp187
sg2
(g3
(S'S3'
I0
I1
tRp188
(I3
S'|'
NNNI3
I1
I0
tbS'311'
tRp189
g2
(g3
(S'S37'
I0
I1
tRp190
(I3
S'|'
NNNI37
I1
I0
tbS'/nfs/phn15/ar0/H/4KRED/AP/4KAP_LC/311'
tRp191
sg2
(g3
(S'S3'
I0
I1
tRp192
(I3
S'|'
NNNI3
I1
I0
tbS'196'
tRp193
g2
(g3
(S'S36'
I0
I1
tRp194
(I3
S'|'
NNNI36
I1
I0
tbS'/nfs/phn1/ar2/EDRIVE/EDRIVE51/LC/196'
tRp195
sg2
(g3
(S'S3'
I0
I1
tRp196
(I3
S'|'
NNNI3
I1
I0
tbS'191'
tRp197
g2
(g3
(S'S36'
I0
I1
tRp198
(I3
S'|'
NNNI36
I1
I0
tbS'/nfs/phn1/ar2/EDRIVE/EDRIVE51/LC/191'
tRp199
sg2
(g3
(S'S3'
I0
I1
tRp200
(I3
S'|'
NNNI3
I1
I0
tbS'190'
tRp201
g2
(g3
(S'S36'
I0
I1
tRp202
(I3
S'|'
NNNI36
I1
I0
tbS'/nfs/phn1/ar2/EDRIVE/EDRIVE51/LC/190'
tRp203
sg2
(g3
(S'S3'
I0
I1
tRp204
(I3
S'|'
NNNI3
I1
I0
tbS'193'
tRp205
g2
(g3
(S'S36'
I0
I1
tRp206
(I3
S'|'
NNNI36
I1
I0
tbS'/nfs/phn1/ar2/EDRIVE/EDRIVE51/LC/193'
tRp207
sg2
(g3
(S'S3'
I0
I1
tRp208
(I3
S'|'
NNNI3
I1
I0
tbS'192'
tRp209
g2
(g3
(S'S36'
I0
I1
tRp210
(I3
S'|'
NNNI36
I1
I0
tbS'/nfs/phn1/ar2/EDRIVE/EDRIVE51/LC/192'
tRp211
sg2
(g3
(S'S3'
I0
I1
tRp212
(I3
S'|'
NNNI3
I1
I0
tbS'115'
tRp213
g2
(g3
(S'S45'
I0
I1
tRp214
(I3
S'|'
NNNI45
I1
I0
tbS'/nfs/phn1/ar2/EDRIVE/EDRIVE3/4KAP/4KAP_LC/115'
tRp215
sg2
(g3
(S'S3'
I0
I1
tRp216
(I3
S'|'
NNNI3
I1
I0
tbS'145'
tRp217
g2
(g3
(S'S36'
I0
I1
tRp218
(I3
S'|'
NNNI36
I1
I0
tbS'/nfs/phn1/ar2/EDRIVE/EDRIVE51/LC/145'
tRp219
sg2
(g3
(S'S3'
I0
I1
tRp220
(I3
S'|'
NNNI3
I1
I0
tbS'277'
tRp221
g2
(g3
(S'S40'
I0
I1
tRp222
(I3
S'|'
NNNI40
I1
I0
tbS'/nfs/phn1/ar2/EDRIVE/EDRIVE1/4KAP_LC/277'
tRp223
sg2
(g3
(S'S3'
I0
I1
tRp224
(I3
S'|'
NNNI3
I1
I0
tbS'205'
tRp225
g2
(g3
(S'S35'
I0
I1
tRp226
(I3
S'|'
NNNI35
I1
I0
tbS'/nfs/phn1/ar2/EDRIVE/EDRIVE3/LC/205'
tRp227
sg2
(g3
(S'S3'
I0
I1
tRp228
(I3
S'|'
NNNI3
I1
I0
tbS'204'
tRp229
g2
(g3
(S'S36'
I0
I1
tRp230
(I3
S'|'
NNNI36
I1
I0
tbS'/nfs/phn1/ar2/EDRIVE/EDRIVE51/LC/204'
tRp231
sg2
(g3
(S'S3'
I0
I1
tRp232
(I3
S'|'
NNNI3
I1
I0
tbS'140'
tRp233
g2
(g3
(S'S38'
I0
I1
tRp234
(I3
S'|'
NNNI38
I1
I0
tbS'/nfs/phn9/ar0/4KAP_LC/140_PR5_combined'
tRp235
sg2
(g3
(S'S3'
I0
I1
tRp236
(I3
S'|'
NNNI3
I1
I0
tbS'141'
tRp237
g2
(g3
(S'S40'
I0
I1
tRp238
(I3
S'|'
NNNI40
I1
I0
tbS'/nfs/phn1/ar2/EDRIVE/EDRIVE1/4KAP_LC/141'
tRp239
sg2
(g3
(S'S3'
I0
I1
tRp240
(I3
S'|'
NNNI3
I1
I0
tbS'366'
tRp241
g2
(g3
(S'S35'
I0
I1
tRp242
(I3
S'|'
NNNI35
I1
I0
tbS'/nfs/phn11/ar0/4KRED/AP/4KAP_LC/366'
tRp243
sg2
(g3
(S'S3'
I0
I1
tRp244
(I3
S'|'
NNNI3
I1
I0
tbS'364'
tRp245
g2
(g3
(S'S37'
I0
I1
tRp246
(I3
S'|'
NNNI37
I1
I0
tbS'/nfs/phn15/ar0/H/4KRED/AP/4KAP_LC/364'
tRp247
sg2
(g3
(S'S3'
I0
I1
tRp248
(I3
S'|'
NNNI3
I1
I0
tbS'365'
tRp249
g2
(g3
(S'S25'
I0
I1
tRp250
(I3
S'|'
NNNI25
I1
I0
tbS'/nfs/phn9/ar0/4KAP_LC/365'
tRp251
sg2
(g3
(S'S3'
I0
I1
tRp252
(I3
S'|'
NNNI3
I1
I0
tbS'362'
tRp253
g2
(g3
(S'S37'
I0
I1
tRp254
(I3
S'|'
NNNI37
I1
I0
tbS'/nfs/phn15/ar0/H/4KRED/AP/4KAP_LC/362'
tRp255
sg2
(g3
(S'S3'
I0
I1
tRp256
(I3
S'|'
NNNI3
I1
I0
tbS'300'
tRp257
g2
(g3
(S'S37'
I0
I1
tRp258
(I3
S'|'
NNNI37
I1
I0
tbS'/nfs/phn15/ar0/H/4KRED/AP/4KAP_LC/300'
tRp259
sg2
(g3
(S'S3'
I0
I1
tRp260
(I3
S'|'
NNNI3
I1
I0
tbS'247'
tRp261
g2
(g3
(S'S35'
I0
I1
tRp262
(I3
S'|'
NNNI35
I1
I0
tbS'/nfs/phn1/ar2/EDRIVE/EDRIVE3/LC/247'
tRp263
sg2
(g3
(S'S3'
I0
I1
tRp264
(I3
S'|'
NNNI3
I1
I0
tbS'241'
tRp265
g2
(g3
(S'S35'
I0
I1
tRp266
(I3
S'|'
NNNI35
I1
I0
tbS'/nfs/phn1/ar2/EDRIVE/EDRIVE3/LC/241'
tRp267
sg2
(g3
(S'S3'
I0
I1
tRp268
(I3
S'|'
NNNI3
I1
I0
tbS'240'
tRp269
g2
(g3
(S'S36'
I0
I1
tRp270
(I3
S'|'
NNNI36
I1
I0
tbS'/nfs/phn1/ar2/EDRIVE/EDRIVE51/LC/240'
tRp271
sg2
(g3
(S'S3'
I0
I1
tRp272
(I3
S'|'
NNNI3
I1
I0
tbS'242'
tRp273
g2
(g3
(S'S36'
I0
I1
tRp274
(I3
S'|'
NNNI36
I1
I0
tbS'/nfs/phn1/ar2/EDRIVE/EDRIVE51/LC/242'
tRp275
sg2
(g3
(S'S3'
I0
I1
tRp276
(I3
S'|'
NNNI3
I1
I0
tbS'388'
tRp277
g2
(g3
(S'S37'
I0
I1
tRp278
(I3
S'|'
NNNI37
I1
I0
tbS'/nfs/phn15/ar0/H/4KRED/AP/4KAP_LC/388'
tRp279
sg2
(g3
(S'S3'
I0
I1
tRp280
(I3
S'|'
NNNI3
I1
I0
tbS'389'
tRp281
g2
(g3
(S'S25'
I0
I1
tRp282
(I3
S'|'
NNNI25
I1
I0
tbS'/nfs/phn9/ar0/4KAP_LC/389'
tRp283
sg2
(g3
(S'S3'
I0
I1
tRp284
(I3
S'|'
NNNI3
I1
I0
tbS'100'
tRp285
g2
(g3
(S'S37'
I0
I1
tRp286
(I3
S'|'
NNNI37
I1
I0
tbS'/nfs/phn15/ar0/H/4KRED/AP/4KAP_LC/100'
tRp287
sg2
(g3
(S'S3'
I0
I1
tRp288
(I3
S'|'
NNNI3
I1
I0
tbS'101'
tRp289
g2
(g3
(S'S47'
I0
I1
tRp290
(I3
S'|'
NNNI47
I1
I0
tbS'/nfs/phn15/ar1/H/4KRED/4KAP_LC/101_PR3_combined'
tRp291
sg2
(g3
(S'S3'
I0
I1
tRp292
(I3
S'|'
NNNI3
I1
I0
tbS'249'
tRp293
g2
(g3
(S'S40'
I0
I1
tRp294
(I3
S'|'
NNNI40
I1
I0
tbS'/nfs/phn1/ar2/EDRIVE/EDRIVE1/4KAP_LC/249'
tRp295
sg2
(g3
(S'S3'
I0
I1
tRp296
(I3
S'|'
NNNI3
I1
I0
tbS'248'
tRp297
g2
(g3
(S'S35'
I0
I1
tRp298
(I3
S'|'
NNNI35
I1
I0
tbS'/nfs/phn1/ar2/EDRIVE/EDRIVE3/LC/248'
tRp299
sg2
(g3
(S'S3'
I0
I1
tRp300
(I3
S'|'
NNNI3
I1
I0
tbS'384'
tRp301
g2
(g3
(S'S37'
I0
I1
tRp302
(I3
S'|'
NNNI37
I1
I0
tbS'/nfs/phn15/ar0/H/4KRED/AP/4KAP_LC/384'
tRp303
sg2
(g3
(S'S3'
I0
I1
tRp304
(I3
S'|'
NNNI3
I1
I0
tbS'432'
tRp305
g2
(g3
(S'S35'
I0
I1
tRp306
(I3
S'|'
NNNI35
I1
I0
tbS'/nfs/phn11/ar0/4KRED/AP/4KAP_LC/432'
tRp307
sg2
(g3
(S'S3'
I0
I1
tRp308
(I3
S'|'
NNNI3
I1
I0
tbS'431'
tRp309
g2
(g3
(S'S25'
I0
I1
tRp310
(I3
S'|'
NNNI25
I1
I0
tbS'/nfs/phn9/ar0/4KAP_LC/431'
tRp311
sg2
(g3
(S'S3'
I0
I1
tRp312
(I3
S'|'
NNNI3
I1
I0
tbS'089'
tRp313
g2
(g3
(S'S37'
I0
I1
tRp314
(I3
S'|'
NNNI37
I1
I0
tbS'/nfs/phn15/ar0/H/4KRED/AP/4KAP_LC/089'
tRp315
sg2
(g3
(S'S3'
I0
I1
tRp316
(I3
S'|'
NNNI3
I1
I0
tbS'144'
tRp317
g2
(g3
(S'S37'
I0
I1
tRp318
(I3
S'|'
NNNI37
I1
I0
tbS'/nfs/phn15/ar0/H/4KRED/AP/4KAP_LC/144'
tRp319
sg2
(g3
(S'S3'
I0
I1
tRp320
(I3
S'|'
NNNI3
I1
I0
tbS'258'
tRp321
g2
(g3
(S'S35'
I0
I1
tRp322
(I3
S'|'
NNNI35
I1
I0
tbS'/nfs/phn1/ar2/EDRIVE/EDRIVE3/LC/258'
tRp323
sg2
(g3
(S'S3'
I0
I1
tRp324
(I3
S'|'
NNNI3
I1
I0
tbS'259'
tRp325
g2
(g3
(S'S37'
I0
I1
tRp326
(I3
S'|'
NNNI37
I1
I0
tbS'/nfs/phn15/ar0/H/4KRED/AP/4KAP_LC/259'
tRp327
sg2
(g3
(S'S3'
I0
I1
tRp328
(I3
S'|'
NNNI3
I1
I0
tbS'177'
tRp329
g2
(g3
(S'S36'
I0
I1
tRp330
(I3
S'|'
NNNI36
I1
I0
tbS'/nfs/phn1/ar2/EDRIVE/EDRIVE51/LC/177'
tRp331
sg2
(g3
(S'S3'
I0
I1
tRp332
(I3
S'|'
NNNI3
I1
I0
tbS'176'
tRp333
g2
(g3
(S'S36'
I0
I1
tRp334
(I3
S'|'
NNNI36
I1
I0
tbS'/nfs/phn1/ar2/EDRIVE/EDRIVE51/LC/176'
tRp335
sg2
(g3
(S'S3'
I0
I1
tRp336
(I3
S'|'
NNNI3
I1
I0
tbS'175'
tRp337
g2
(g3
(S'S35'
I0
I1
tRp338
(I3
S'|'
NNNI35
I1
I0
tbS'/nfs/phn1/ar2/EDRIVE/EDRIVE3/LC/175'
tRp339
sg2
(g3
(S'S3'
I0
I1
tRp340
(I3
S'|'
NNNI3
I1
I0
tbS'174'
tRp341
g2
(g3
(S'S35'
I0
I1
tRp342
(I3
S'|'
NNNI35
I1
I0
tbS'/nfs/phn1/ar2/EDRIVE/EDRIVE3/LC/174'
tRp343
sg2
(g3
(S'S3'
I0
I1
tRp344
(I3
S'|'
NNNI3
I1
I0
tbS'173'
tRp345
g2
(g3
(S'S36'
I0
I1
tRp346
(I3
S'|'
NNNI36
I1
I0
tbS'/nfs/phn1/ar2/EDRIVE/EDRIVE51/LC/173'
tRp347
sg2
(g3
(S'S3'
I0
I1
tRp348
(I3
S'|'
NNNI3
I1
I0
tbS'257'
tRp349
g2
(g3
(S'S34'
I0
I1
tRp350
(I3
S'|'
NNNI34
I1
I0
tbS'/nfs/phn15/ar1/H/4KRED/4KAP_LC/257'
tRp351
sg2
(g3
(S'S3'
I0
I1
tRp352
(I3
S'|'
NNNI3
I1
I0
tbS'170'
tRp353
g2
(g3
(S'S36'
I0
I1
tRp354
(I3
S'|'
NNNI36
I1
I0
tbS'/nfs/phn1/ar2/EDRIVE/EDRIVE51/LC/170'
tRp355
sg2
(g3
(S'S3'
I0
I1
tRp356
(I3
S'|'
NNNI3
I1
I0
tbS'182'
tRp357
g2
(g3
(S'S36'
I0
I1
tRp358
(I3
S'|'
NNNI36
I1
I0
tbS'/nfs/phn1/ar2/EDRIVE/EDRIVE51/LC/182'
tRp359
sg2
(g3
(S'S3'
I0
I1
tRp360
(I3
S'|'
NNNI3
I1
I0
tbS'183'
tRp361
g2
(g3
(S'S36'
I0
I1
tRp362
(I3
S'|'
NNNI36
I1
I0
tbS'/nfs/phn1/ar2/EDRIVE/EDRIVE51/LC/183'
tRp363
sg2
(g3
(S'S3'
I0
I1
tRp364
(I3
S'|'
NNNI3
I1
I0
tbS'186'
tRp365
g2
(g3
(S'S25'
I0
I1
tRp366
(I3
S'|'
NNNI25
I1
I0
tbS'/nfs/phn9/ar0/4KAP_LC/186'
tRp367
sg2
(g3
(S'S3'
I0
I1
tRp368
(I3
S'|'
NNNI3
I1
I0
tbS'187'
tRp369
g2
(g3
(S'S36'
I0
I1
tRp370
(I3
S'|'
NNNI36
I1
I0
tbS'/nfs/phn1/ar2/EDRIVE/EDRIVE51/LC/187'
tRp371
sg2
(g3
(S'S3'
I0
I1
tRp372
(I3
S'|'
NNNI3
I1
I0
tbS'184'
tRp373
g2
(g3
(S'S36'
I0
I1
tRp374
(I3
S'|'
NNNI36
I1
I0
tbS'/nfs/phn1/ar2/EDRIVE/EDRIVE51/LC/184'
tRp375
sg2
(g3
(S'S3'
I0
I1
tRp376
(I3
S'|'
NNNI3
I1
I0
tbS'185'
tRp377
g2
(g3
(S'S40'
I0
I1
tRp378
(I3
S'|'
NNNI40
I1
I0
tbS'/nfs/phn1/ar2/EDRIVE/EDRIVE1/4KAP_LC/185'
tRp379
sg2
(g3
(S'S3'
I0
I1
tRp380
(I3
S'|'
NNNI3
I1
I0
tbS'188'
tRp381
g2
(g3
(S'S36'
I0
I1
tRp382
(I3
S'|'
NNNI36
I1
I0
tbS'/nfs/phn1/ar2/EDRIVE/EDRIVE51/LC/188'
tRp383
sg2
(g3
(S'S3'
I0
I1
tRp384
(I3
S'|'
NNNI3
I1
I0
tbS'341'
tRp385
g2
(g3
(S'S40'
I0
I1
tRp386
(I3
S'|'
NNNI40
I1
I0
tbS'/nfs/phn1/ar2/EDRIVE/EDRIVE1/4KAP_LC/341'
tRp387
sg2
(g3
(S'S3'
I0
I1
tRp388
(I3
S'|'
NNNI3
I1
I0
tbS'063'
tRp389
g2
(g3
(S'S33'
I0
I1
tRp390
(I3
S'|'
NNNI33
I1
I0
tbS'/nfs/phn7/ar1/H/4KRED/4KAP_LC/063'
tRp391
sg2
(g3
(S'S3'
I0
I1
tRp392
(I3
S'|'
NNNI3
I1
I0
tbS'062'
tRp393
g2
(g3
(S'S42'
I0
I1
tRp394
(I3
S'|'
NNNI42
I1
I0
tbS'/nfs/phn15/ar1/H/4KRED/4KAP_LC/062_PR5_D20'
tRp395
sg2
(g3
(S'S3'
I0
I1
tRp396
(I3
S'|'
NNNI3
I1
I0
tbS'317'
tRp397
g2
(g3
(S'S35'
I0
I1
tRp398
(I3
S'|'
NNNI35
I1
I0
tbS'/nfs/phn11/ar0/4KRED/AP/4KAP_LC/317'
tRp399
sg2
(g3
(S'S3'
I0
I1
tRp400
(I3
S'|'
NNNI3
I1
I0
tbS'315'
tRp401
g2
(g3
(S'S40'
I0
I1
tRp402
(I3
S'|'
NNNI40
I1
I0
tbS'/nfs/phn1/ar2/EDRIVE/EDRIVE1/4KAP_LC/315'
tRp403
sg2
(g3
(S'S3'
I0
I1
tRp404
(I3
S'|'
NNNI3
I1
I0
tbS'316'
tRp405
g2
(g3
(S'S37'
I0
I1
tRp406
(I3
S'|'
NNNI37
I1
I0
tbS'/nfs/phn15/ar0/H/4KRED/AP/4KAP_LC/316'
tRp407
sg2
(g3
(S'S3'
I0
I1
tRp408
(I3
S'|'
NNNI3
I1
I0
tbS'168'
tRp409
g2
(g3
(S'S35'
I0
I1
tRp410
(I3
S'|'
NNNI35
I1
I0
tbS'/nfs/phn1/ar2/EDRIVE/EDRIVE3/LC/168'
tRp411
sg2
(g3
(S'S3'
I0
I1
tRp412
(I3
S'|'
NNNI3
I1
I0
tbS'169'
tRp413
g2
(g3
(S'S35'
I0
I1
tRp414
(I3
S'|'
NNNI35
I1
I0
tbS'/nfs/phn1/ar2/EDRIVE/EDRIVE3/LC/169'
tRp415
sg2
(g3
(S'S3'
I0
I1
tRp416
(I3
S'|'
NNNI3
I1
I0
tbS'164'
tRp417
g2
(g3
(S'S40'
I0
I1
tRp418
(I3
S'|'
NNNI40
I1
I0
tbS'/nfs/phn1/ar2/EDRIVE/EDRIVE1/4KAP_LC/164'
tRp419
sg2
(g3
(S'S3'
I0
I1
tRp420
(I3
S'|'
NNNI3
I1
I0
tbS'165'
tRp421
g2
(g3
(S'S25'
I0
I1
tRp422
(I3
S'|'
NNNI25
I1
I0
tbS'/nfs/phn9/ar0/4KAP_LC/165'
tRp423
sg2
(g3
(S'S3'
I0
I1
tRp424
(I3
S'|'
NNNI3
I1
I0
tbS'166'
tRp425
g2
(g3
(S'S36'
I0
I1
tRp426
(I3
S'|'
NNNI36
I1
I0
tbS'/nfs/phn1/ar2/EDRIVE/EDRIVE51/LC/166'
tRp427
sg2
(g3
(S'S3'
I0
I1
tRp428
(I3
S'|'
NNNI3
I1
I0
tbS'167'
tRp429
g2
(g3
(S'S36'
I0
I1
tRp430
(I3
S'|'
NNNI36
I1
I0
tbS'/nfs/phn1/ar2/EDRIVE/EDRIVE51/LC/167'
tRp431
sg2
(g3
(S'S3'
I0
I1
tRp432
(I3
S'|'
NNNI3
I1
I0
tbS'160'
tRp433
g2
(g3
(S'S36'
I0
I1
tRp434
(I3
S'|'
NNNI36
I1
I0
tbS'/nfs/phn1/ar2/EDRIVE/EDRIVE51/LC/160'
tRp435
sg2
(g3
(S'S3'
I0
I1
tRp436
(I3
S'|'
NNNI3
I1
I0
tbS'161'
tRp437
g2
(g3
(S'S36'
I0
I1
tRp438
(I3
S'|'
NNNI36
I1
I0
tbS'/nfs/phn1/ar2/EDRIVE/EDRIVE51/LC/161'
tRp439
sg2
(g3
(S'S3'
I0
I1
tRp440
(I3
S'|'
NNNI3
I1
I0
tbS'162'
tRp441
g2
(g3
(S'S36'
I0
I1
tRp442
(I3
S'|'
NNNI36
I1
I0
tbS'/nfs/phn1/ar2/EDRIVE/EDRIVE51/LC/162'
tRp443
sg2
(g3
(S'S3'
I0
I1
tRp444
(I3
S'|'
NNNI3
I1
I0
tbS'163'
tRp445
g2
(g3
(S'S40'
I0
I1
tRp446
(I3
S'|'
NNNI40
I1
I0
tbS'/nfs/phn1/ar2/EDRIVE/EDRIVE1/4KAP_LC/163'
tRp447
sg2
(g3
(S'S3'
I0
I1
tRp448
(I3
S'|'
NNNI3
I1
I0
tbS'314'
tRp449
g2
(g3
(S'S37'
I0
I1
tRp450
(I3
S'|'
NNNI37
I1
I0
tbS'/nfs/phn15/ar0/H/4KRED/AP/4KAP_LC/314'
tRp451
sg2
(g3
(S'S3'
I0
I1
tRp452
(I3
S'|'
NNNI3
I1
I0
tbS'151'
tRp453
g2
(g3
(S'S36'
I0
I1
tRp454
(I3
S'|'
NNNI36
I1
I0
tbS'/nfs/phn1/ar2/EDRIVE/EDRIVE51/LC/151'
tRp455
sg2
(g3
(S'S3'
I0
I1
tRp456
(I3
S'|'
NNNI3
I1
I0
tbS'150'
tRp457
g2
(g3
(S'S37'
I0
I1
tRp458
(I3
S'|'
NNNI37
I1
I0
tbS'/nfs/phn15/ar0/H/4KRED/AP/4KAP_LC/150'
tRp459
sg2
(g3
(S'S3'
I0
I1
tRp460
(I3
S'|'
NNNI3
I1
I0
tbS'153'
tRp461
g2
(g3
(S'S36'
I0
I1
tRp462
(I3
S'|'
NNNI36
I1
I0
tbS'/nfs/phn1/ar2/EDRIVE/EDRIVE51/LC/153'
tRp463
sg2
(g3
(S'S3'
I0
I1
tRp464
(I3
S'|'
NNNI3
I1
I0
tbS'152'
tRp465
g2
(g3
(S'S36'
I0
I1
tRp466
(I3
S'|'
NNNI36
I1
I0
tbS'/nfs/phn1/ar2/EDRIVE/EDRIVE51/LC/152'
tRp467
sg2
(g3
(S'S3'
I0
I1
tRp468
(I3
S'|'
NNNI3
I1
I0
tbS'155'
tRp469
g2
(g3
(S'S36'
I0
I1
tRp470
(I3
S'|'
NNNI36
I1
I0
tbS'/nfs/phn1/ar2/EDRIVE/EDRIVE51/LC/155'
tRp471
sg2
(g3
(S'S3'
I0
I1
tRp472
(I3
S'|'
NNNI3
I1
I0
tbS'154'
tRp473
g2
(g3
(S'S34'
I0
I1
tRp474
(I3
S'|'
NNNI34
I1
I0
tbS'/nfs/phn15/ar1/H/4KRED/4KAP_LC/154'
tRp475
sg2
(g3
(S'S3'
I0
I1
tRp476
(I3
S'|'
NNNI3
I1
I0
tbS'159'
tRp477
g2
(g3
(S'S35'
I0
I1
tRp478
(I3
S'|'
NNNI35
I1
I0
tbS'/nfs/phn1/ar2/EDRIVE/EDRIVE3/LC/159'
tRp479
sg2
(g3
(S'S3'
I0
I1
tRp480
(I3
S'|'
NNNI3
I1
I0
tbS'238'
tRp481
g2
(g3
(S'S37'
I0
I1
tRp482
(I3
S'|'
NNNI37
I1
I0
tbS'/nfs/phn15/ar0/H/4KRED/AP/4KAP_LC/238'
tRp483
sg2
(g3
(S'S3'
I0
I1
tRp484
(I3
S'|'
NNNI3
I1
I0
tbS'239'
tRp485
g2
(g3
(S'S35'
I0
I1
tRp486
(I3
S'|'
NNNI35
I1
I0
tbS'/nfs/phn1/ar2/EDRIVE/EDRIVE3/LC/239'
tRp487
sg2
(g3
(S'S3'
I0
I1
tRp488
(I3
S'|'
NNNI3
I1
I0
tbS'235'
tRp489
g2
(g3
(S'S25'
I0
I1
tRp490
(I3
S'|'
NNNI25
I1
I0
tbS'/nfs/phn9/ar0/4KAP_LC/235'
tRp491
sg2
(g3
(S'S3'
I0
I1
tRp492
(I3
S'|'
NNNI3
I1
I0
tbS'236'
tRp493
g2
(g3
(S'S36'
I0
I1
tRp494
(I3
S'|'
NNNI36
I1
I0
tbS'/nfs/phn1/ar2/EDRIVE/EDRIVE51/LC/236'
tRp495
sg2
(g3
(S'S3'
I0
I1
tRp496
(I3
S'|'
NNNI3
I1
I0
tbS'146'
tRp497
g2
(g3
(S'S25'
I0
I1
tRp498
(I3
S'|'
NNNI25
I1
I0
tbS'/nfs/phn9/ar0/4KAP_LC/146'
tRp499
sg2
(g3
(S'S3'
I0
I1
tRp500
(I3
S'|'
NNNI3
I1
I0
tbS'147'
tRp501
g2
(g3
(S'S36'
I0
I1
tRp502
(I3
S'|'
NNNI36
I1
I0
tbS'/nfs/phn1/ar2/EDRIVE/EDRIVE51/LC/147'
tRp503
sg2
(g3
(S'S3'
I0
I1
tRp504
(I3
S'|'
NNNI3
I1
I0
tbS'203'
tRp505
g2
(g3
(S'S36'
I0
I1
tRp506
(I3
S'|'
NNNI36
I1
I0
tbS'/nfs/phn1/ar2/EDRIVE/EDRIVE51/LC/203'
tRp507
sg2
(g3
(S'S3'
I0
I1
tRp508
(I3
S'|'
NNNI3
I1
I0
tbS'088'
tRp509
g2
(g3
(S'S42'
I0
I1
tRp510
(I3
S'|'
NNNI42
I1
I0
tbS'/nfs/phn1/ar2/EDRIVE/EDRIVE1/4KAP_LC/088.2'
tRp511
sg2
(g3
(S'S3'
I0
I1
tRp512
(I3
S'|'
NNNI3
I1
I0
tbS'142'
tRp513
g2
(g3
(S'S40'
I0
I1
tRp514
(I3
S'|'
NNNI40
I1
I0
tbS'/nfs/phn1/ar2/EDRIVE/EDRIVE1/4KAP_LC/142'
tRp515
sg2
(g3
(S'S3'
I0
I1
tRp516
(I3
S'|'
NNNI3
I1
I0
tbS'143'
tRp517
g2
(g3
(S'S40'
I0
I1
tRp518
(I3
S'|'
NNNI40
I1
I0
tbS'/nfs/phn1/ar2/EDRIVE/EDRIVE1/4KAP_LC/143'
tRp519
sg2
(g3
(S'S3'
I0
I1
tRp520
(I3
S'|'
NNNI3
I1
I0
tbS'207'
tRp521
g2
(g3
(S'S35'
I0
I1
tRp522
(I3
S'|'
NNNI35
I1
I0
tbS'/nfs/phn1/ar2/EDRIVE/EDRIVE3/LC/207'
tRp523
sg2
(g3
(S'S3'
I0
I1
tRp524
(I3
S'|'
NNNI3
I1
I0
tbS'206'
tRp525
g2
(g3
(S'S35'
I0
I1
tRp526
(I3
S'|'
NNNI35
I1
I0
tbS'/nfs/phn1/ar2/EDRIVE/EDRIVE3/LC/206'
tRp527
sg2
(g3
(S'S3'
I0
I1
tRp528
(I3
S'|'
NNNI3
I1
I0
tbS'209'
tRp529
g2
(g3
(S'S35'
I0
I1
tRp530
(I3
S'|'
NNNI35
I1
I0
tbS'/nfs/phn11/ar0/4KRED/AP/4KAP_LC/209'
tRp531
sg2
(g3
(S'S3'
I0
I1
tRp532
(I3
S'|'
NNNI3
I1
I0
tbS'087'
tRp533
g2
(g3
(S'S40'
I0
I1
tRp534
(I3
S'|'
NNNI40
I1
I0
tbS'/nfs/phn1/ar2/EDRIVE/EDRIVE1/4KAP_LC/087'
tRp535
sg2
(g3
(S'S3'
I0
I1
tRp536
(I3
S'|'
NNNI3
I1
I0
tbS'086'
tRp537
g2
(g3
(S'S25'
I0
I1
tRp538
(I3
S'|'
NNNI25
I1
I0
tbS'/nfs/phn9/ar0/4KAP_LC/086'
tRp539
sg2
(g3
(S'S3'
I0
I1
tRp540
(I3
S'|'
NNNI3
I1
I0
tbS'148'
tRp541
g2
(g3
(S'S36'
I0
I1
tRp542
(I3
S'|'
NNNI36
I1
I0
tbS'/nfs/phn1/ar2/EDRIVE/EDRIVE51/LC/148'
tRp543
sg2
(g3
(S'S3'
I0
I1
tRp544
(I3
S'|'
NNNI3
I1
I0
tbS'149'
tRp545
g2
(g3
(S'S36'
I0
I1
tRp546
(I3
S'|'
NNNI36
I1
I0
tbS'/nfs/phn1/ar2/EDRIVE/EDRIVE51/LC/149'
tRp547
sg2
(g3
(S'S3'
I0
I1
tRp548
(I3
S'|'
NNNI3
I1
I0
tbS'357'
tRp549
g2
(g3
(S'S40'
I0
I1
tRp550
(I3
S'|'
NNNI40
I1
I0
tbS'/nfs/phn1/ar2/EDRIVE/EDRIVE1/4KAP_LC/357'
tRp551
sg2
(g3
(S'S3'
I0
I1
tRp552
(I3
S'|'
NNNI3
I1
I0
tbS'267'
tRp553
g2
(g3
(S'S57'
I0
I1
tRp554
(I3
S'|'
NNNI57
I1
I0
tbS'/nfs/phn11/ar1/H/BIGPROJ/hatuser/2007_hatnet_phot/G267/LC'
tRp555
sg2
(g3
(S'S3'
I0
I1
tRp556
(I3
S'|'
NNNI3
I1
I0
tbS'358'
tRp557
g2
(g3
(S'S40'
I0
I1
tRp558
(I3
S'|'
NNNI40
I1
I0
tbS'/nfs/phn1/ar2/EDRIVE/EDRIVE1/4KAP_LC/358'
tRp559
s.